; Listing generated by Microsoft (R) Optimizing Compiler Version 18.00.21005.1 

include listing.inc

INCLUDELIB OLDNAMES

CONST	ENDS
PUBLIC	?_tri@?$box_collider@$0A@$0A@@@QEAA_NXZ		; box_collider<0,0>::_tri
PUBLIC	?_tri@?$box_collider@$0A@$00@@QEAA_NXZ		; box_collider<0,1>::_tri
PUBLIC	?_tri@?$box_collider@$00$0A@@@QEAA_NXZ		; box_collider<1,0>::_tri
PUBLIC	?_tri@?$box_collider@$00$00@@QEAA_NXZ		; box_collider<1,1>::_tri
PUBLIC	?_prim@?$box_collider@$0A@$0A@@@QEAAXK@Z	; box_collider<0,0>::_prim
PUBLIC	?_box@?$box_collider@$0A@$0A@@@QEAA_NAEBU?$_vector3@M@@0@Z ; box_collider<0,0>::_box
PUBLIC	?_prim@?$box_collider@$0A@$00@@QEAAXK@Z		; box_collider<0,1>::_prim
PUBLIC	?_box@?$box_collider@$0A@$00@@QEAA_NAEBU?$_vector3@M@@0@Z ; box_collider<0,1>::_box
PUBLIC	?_prim@?$box_collider@$00$0A@@@QEAAXK@Z		; box_collider<1,0>::_prim
PUBLIC	?_box@?$box_collider@$00$0A@@@QEAA_NAEBU?$_vector3@M@@0@Z ; box_collider<1,0>::_box
PUBLIC	?_prim@?$box_collider@$00$00@@QEAAXK@Z		; box_collider<1,1>::_prim
PUBLIC	?_box@?$box_collider@$00$00@@QEAA_NAEBU?$_vector3@M@@0@Z ; box_collider<1,1>::_box
PUBLIC	?_stab@?$box_collider@$0A@$0A@@@QEAAXPEBVAABBNoLeafNode@Opcode@@@Z ; box_collider<0,0>::_stab
PUBLIC	?_init@?$box_collider@$0A@$0A@@@QEAAXPEAVCOLLIDER@CDB@@PEAU?$_vector3@M@@PEAVTRI@3@AEBU4@3@Z ; box_collider<0,0>::_init
PUBLIC	?_stab@?$box_collider@$0A@$00@@QEAAXPEBVAABBNoLeafNode@Opcode@@@Z ; box_collider<0,1>::_stab
PUBLIC	?_init@?$box_collider@$0A@$00@@QEAAXPEAVCOLLIDER@CDB@@PEAU?$_vector3@M@@PEAVTRI@3@AEBU4@3@Z ; box_collider<0,1>::_init
PUBLIC	?_stab@?$box_collider@$00$0A@@@QEAAXPEBVAABBNoLeafNode@Opcode@@@Z ; box_collider<1,0>::_stab
PUBLIC	?_init@?$box_collider@$00$0A@@@QEAAXPEAVCOLLIDER@CDB@@PEAU?$_vector3@M@@PEAVTRI@3@AEBU4@3@Z ; box_collider<1,0>::_init
PUBLIC	?_stab@?$box_collider@$00$00@@QEAAXPEBVAABBNoLeafNode@Opcode@@@Z ; box_collider<1,1>::_stab
PUBLIC	?_init@?$box_collider@$00$00@@QEAAXPEAVCOLLIDER@CDB@@PEAU?$_vector3@M@@PEAVTRI@3@AEBU4@3@Z ; box_collider<1,1>::_init
PUBLIC	??1?$box_collider@$0A@$0A@@@QEAA@XZ		; box_collider<0,0>::~box_collider<0,0>
PUBLIC	??0?$box_collider@$0A@$0A@@@QEAA@XZ		; box_collider<0,0>::box_collider<0,0>
PUBLIC	??1?$box_collider@$0A@$00@@QEAA@XZ		; box_collider<0,1>::~box_collider<0,1>
PUBLIC	??0?$box_collider@$0A@$00@@QEAA@XZ		; box_collider<0,1>::box_collider<0,1>
PUBLIC	??1?$box_collider@$00$0A@@@QEAA@XZ		; box_collider<1,0>::~box_collider<1,0>
PUBLIC	??0?$box_collider@$00$0A@@@QEAA@XZ		; box_collider<1,0>::box_collider<1,0>
PUBLIC	??1?$box_collider@$00$00@@QEAA@XZ		; box_collider<1,1>::~box_collider<1,1>
PUBLIC	??0?$box_collider@$00$00@@QEAA@XZ		; box_collider<1,1>::box_collider<1,1>
PUBLIC	?box_query@COLLIDER@CDB@@QEAAXPEBVMODEL@2@AEBU?$_vector3@M@@1@Z ; CDB::COLLIDER::box_query
PUBLIC	?planeBoxOverlap@@YA_NAEBVicePoint@IceMaths@@M0@Z ; planeBoxOverlap
;	COMDAT pdata
pdata	SEGMENT
$pdata$?_tri@?$box_collider@$0A@$0A@@@QEAA_NXZ DD imagerel $LN340
	DD	imagerel $LN340+402
	DD	imagerel $unwind$?_tri@?$box_collider@$0A@$0A@@@QEAA_NXZ
pdata	ENDS
;	COMDAT pdata
pdata	SEGMENT
$pdata$5$?_tri@?$box_collider@$0A@$0A@@@QEAA_NXZ DD imagerel $LN340+402
	DD	imagerel $LN340+694
	DD	imagerel $chain$5$?_tri@?$box_collider@$0A@$0A@@@QEAA_NXZ
pdata	ENDS
;	COMDAT pdata
pdata	SEGMENT
$pdata$6$?_tri@?$box_collider@$0A@$0A@@@QEAA_NXZ DD imagerel $LN340+694
	DD	imagerel $LN340+751
	DD	imagerel $chain$6$?_tri@?$box_collider@$0A@$0A@@@QEAA_NXZ
pdata	ENDS
;	COMDAT pdata
pdata	SEGMENT
$pdata$7$?_tri@?$box_collider@$0A@$0A@@@QEAA_NXZ DD imagerel $LN340+751
	DD	imagerel $LN340+755
	DD	imagerel $chain$7$?_tri@?$box_collider@$0A@$0A@@@QEAA_NXZ
pdata	ENDS
;	COMDAT pdata
pdata	SEGMENT
$pdata$8$?_tri@?$box_collider@$0A@$0A@@@QEAA_NXZ DD imagerel $LN340+755
	DD	imagerel $LN340+759
	DD	imagerel $chain$8$?_tri@?$box_collider@$0A@$0A@@@QEAA_NXZ
pdata	ENDS
;	COMDAT pdata
pdata	SEGMENT
$pdata$?_tri@?$box_collider@$0A@$00@@QEAA_NXZ DD imagerel $LN340
	DD	imagerel $LN340+402
	DD	imagerel $unwind$?_tri@?$box_collider@$0A@$00@@QEAA_NXZ
pdata	ENDS
;	COMDAT pdata
pdata	SEGMENT
$pdata$5$?_tri@?$box_collider@$0A@$00@@QEAA_NXZ DD imagerel $LN340+402
	DD	imagerel $LN340+694
	DD	imagerel $chain$5$?_tri@?$box_collider@$0A@$00@@QEAA_NXZ
pdata	ENDS
;	COMDAT pdata
pdata	SEGMENT
$pdata$6$?_tri@?$box_collider@$0A@$00@@QEAA_NXZ DD imagerel $LN340+694
	DD	imagerel $LN340+751
	DD	imagerel $chain$6$?_tri@?$box_collider@$0A@$00@@QEAA_NXZ
pdata	ENDS
;	COMDAT pdata
pdata	SEGMENT
$pdata$7$?_tri@?$box_collider@$0A@$00@@QEAA_NXZ DD imagerel $LN340+751
	DD	imagerel $LN340+755
	DD	imagerel $chain$7$?_tri@?$box_collider@$0A@$00@@QEAA_NXZ
pdata	ENDS
;	COMDAT pdata
pdata	SEGMENT
$pdata$8$?_tri@?$box_collider@$0A@$00@@QEAA_NXZ DD imagerel $LN340+755
	DD	imagerel $LN340+759
	DD	imagerel $chain$8$?_tri@?$box_collider@$0A@$00@@QEAA_NXZ
pdata	ENDS
;	COMDAT pdata
pdata	SEGMENT
$pdata$?_tri@?$box_collider@$00$0A@@@QEAA_NXZ DD imagerel $LN341
	DD	imagerel $LN341+424
	DD	imagerel $unwind$?_tri@?$box_collider@$00$0A@@@QEAA_NXZ
pdata	ENDS
;	COMDAT pdata
pdata	SEGMENT
$pdata$5$?_tri@?$box_collider@$00$0A@@@QEAA_NXZ DD imagerel $LN341+424
	DD	imagerel $LN341+2225
	DD	imagerel $chain$5$?_tri@?$box_collider@$00$0A@@@QEAA_NXZ
pdata	ENDS
;	COMDAT pdata
pdata	SEGMENT
$pdata$6$?_tri@?$box_collider@$00$0A@@@QEAA_NXZ DD imagerel $LN341+2225
	DD	imagerel $LN341+2292
	DD	imagerel $chain$6$?_tri@?$box_collider@$00$0A@@@QEAA_NXZ
pdata	ENDS
;	COMDAT pdata
pdata	SEGMENT
$pdata$7$?_tri@?$box_collider@$00$0A@@@QEAA_NXZ DD imagerel $LN341+2292
	DD	imagerel $LN341+2296
	DD	imagerel $chain$7$?_tri@?$box_collider@$00$0A@@@QEAA_NXZ
pdata	ENDS
;	COMDAT pdata
pdata	SEGMENT
$pdata$8$?_tri@?$box_collider@$00$0A@@@QEAA_NXZ DD imagerel $LN341+2296
	DD	imagerel $LN341+2300
	DD	imagerel $chain$8$?_tri@?$box_collider@$00$0A@@@QEAA_NXZ
pdata	ENDS
;	COMDAT pdata
pdata	SEGMENT
$pdata$?_tri@?$box_collider@$00$00@@QEAA_NXZ DD imagerel $LN341
	DD	imagerel $LN341+424
	DD	imagerel $unwind$?_tri@?$box_collider@$00$00@@QEAA_NXZ
pdata	ENDS
;	COMDAT pdata
pdata	SEGMENT
$pdata$5$?_tri@?$box_collider@$00$00@@QEAA_NXZ DD imagerel $LN341+424
	DD	imagerel $LN341+2225
	DD	imagerel $chain$5$?_tri@?$box_collider@$00$00@@QEAA_NXZ
pdata	ENDS
;	COMDAT pdata
pdata	SEGMENT
$pdata$6$?_tri@?$box_collider@$00$00@@QEAA_NXZ DD imagerel $LN341+2225
	DD	imagerel $LN341+2292
	DD	imagerel $chain$6$?_tri@?$box_collider@$00$00@@QEAA_NXZ
pdata	ENDS
;	COMDAT pdata
pdata	SEGMENT
$pdata$7$?_tri@?$box_collider@$00$00@@QEAA_NXZ DD imagerel $LN341+2292
	DD	imagerel $LN341+2296
	DD	imagerel $chain$7$?_tri@?$box_collider@$00$00@@QEAA_NXZ
pdata	ENDS
;	COMDAT pdata
pdata	SEGMENT
$pdata$8$?_tri@?$box_collider@$00$00@@QEAA_NXZ DD imagerel $LN341+2296
	DD	imagerel $LN341+2300
	DD	imagerel $chain$8$?_tri@?$box_collider@$00$00@@QEAA_NXZ
pdata	ENDS
;	COMDAT pdata
pdata	SEGMENT
$pdata$?_prim@?$box_collider@$0A@$0A@@@QEAAXK@Z DD imagerel $LN358
	DD	imagerel $LN358+298
	DD	imagerel $unwind$?_prim@?$box_collider@$0A@$0A@@@QEAAXK@Z
pdata	ENDS
;	COMDAT pdata
pdata	SEGMENT
$pdata$1$?_prim@?$box_collider@$0A@$0A@@@QEAAXK@Z DD imagerel $LN358+298
	DD	imagerel $LN358+417
	DD	imagerel $chain$1$?_prim@?$box_collider@$0A@$0A@@@QEAAXK@Z
pdata	ENDS
;	COMDAT pdata
pdata	SEGMENT
$pdata$3$?_prim@?$box_collider@$0A@$0A@@@QEAAXK@Z DD imagerel $LN358+417
	DD	imagerel $LN358+833
	DD	imagerel $chain$3$?_prim@?$box_collider@$0A@$0A@@@QEAAXK@Z
pdata	ENDS
;	COMDAT pdata
pdata	SEGMENT
$pdata$4$?_prim@?$box_collider@$0A@$0A@@@QEAAXK@Z DD imagerel $LN358+833
	DD	imagerel $LN358+978
	DD	imagerel $chain$4$?_prim@?$box_collider@$0A@$0A@@@QEAAXK@Z
pdata	ENDS
;	COMDAT pdata
pdata	SEGMENT
$pdata$5$?_prim@?$box_collider@$0A@$0A@@@QEAAXK@Z DD imagerel $LN358+978
	DD	imagerel $LN358+994
	DD	imagerel $chain$5$?_prim@?$box_collider@$0A@$0A@@@QEAAXK@Z
pdata	ENDS
;	COMDAT pdata
pdata	SEGMENT
$pdata$6$?_prim@?$box_collider@$0A@$0A@@@QEAAXK@Z DD imagerel $LN358+994
	DD	imagerel $LN358+1012
	DD	imagerel $chain$6$?_prim@?$box_collider@$0A@$0A@@@QEAAXK@Z
pdata	ENDS
;	COMDAT pdata
pdata	SEGMENT
$pdata$7$?_prim@?$box_collider@$0A@$0A@@@QEAAXK@Z DD imagerel $LN358+1012
	DD	imagerel $LN358+1061
	DD	imagerel $chain$7$?_prim@?$box_collider@$0A@$0A@@@QEAAXK@Z
pdata	ENDS
;	COMDAT pdata
pdata	SEGMENT
$pdata$?_prim@?$box_collider@$0A@$00@@QEAAXK@Z DD imagerel $LN358
	DD	imagerel $LN358+298
	DD	imagerel $unwind$?_prim@?$box_collider@$0A@$00@@QEAAXK@Z
pdata	ENDS
;	COMDAT pdata
pdata	SEGMENT
$pdata$1$?_prim@?$box_collider@$0A@$00@@QEAAXK@Z DD imagerel $LN358+298
	DD	imagerel $LN358+417
	DD	imagerel $chain$1$?_prim@?$box_collider@$0A@$00@@QEAAXK@Z
pdata	ENDS
;	COMDAT pdata
pdata	SEGMENT
$pdata$3$?_prim@?$box_collider@$0A@$00@@QEAAXK@Z DD imagerel $LN358+417
	DD	imagerel $LN358+833
	DD	imagerel $chain$3$?_prim@?$box_collider@$0A@$00@@QEAAXK@Z
pdata	ENDS
;	COMDAT pdata
pdata	SEGMENT
$pdata$4$?_prim@?$box_collider@$0A@$00@@QEAAXK@Z DD imagerel $LN358+833
	DD	imagerel $LN358+978
	DD	imagerel $chain$4$?_prim@?$box_collider@$0A@$00@@QEAAXK@Z
pdata	ENDS
;	COMDAT pdata
pdata	SEGMENT
$pdata$5$?_prim@?$box_collider@$0A@$00@@QEAAXK@Z DD imagerel $LN358+978
	DD	imagerel $LN358+994
	DD	imagerel $chain$5$?_prim@?$box_collider@$0A@$00@@QEAAXK@Z
pdata	ENDS
;	COMDAT pdata
pdata	SEGMENT
$pdata$6$?_prim@?$box_collider@$0A@$00@@QEAAXK@Z DD imagerel $LN358+994
	DD	imagerel $LN358+1012
	DD	imagerel $chain$6$?_prim@?$box_collider@$0A@$00@@QEAAXK@Z
pdata	ENDS
;	COMDAT pdata
pdata	SEGMENT
$pdata$7$?_prim@?$box_collider@$0A@$00@@QEAAXK@Z DD imagerel $LN358+1012
	DD	imagerel $LN358+1061
	DD	imagerel $chain$7$?_prim@?$box_collider@$0A@$00@@QEAAXK@Z
pdata	ENDS
;	COMDAT pdata
pdata	SEGMENT
$pdata$?_prim@?$box_collider@$00$0A@@@QEAAXK@Z DD imagerel $LN361
	DD	imagerel $LN361+303
	DD	imagerel $unwind$?_prim@?$box_collider@$00$0A@@@QEAAXK@Z
pdata	ENDS
;	COMDAT pdata
pdata	SEGMENT
$pdata$2$?_prim@?$box_collider@$00$0A@@@QEAAXK@Z DD imagerel $LN361+303
	DD	imagerel $LN361+450
	DD	imagerel $chain$2$?_prim@?$box_collider@$00$0A@@@QEAAXK@Z
pdata	ENDS
;	COMDAT pdata
pdata	SEGMENT
$pdata$4$?_prim@?$box_collider@$00$0A@@@QEAAXK@Z DD imagerel $LN361+450
	DD	imagerel $LN361+570
	DD	imagerel $chain$4$?_prim@?$box_collider@$00$0A@@@QEAAXK@Z
pdata	ENDS
;	COMDAT pdata
pdata	SEGMENT
$pdata$6$?_prim@?$box_collider@$00$0A@@@QEAAXK@Z DD imagerel $LN361+570
	DD	imagerel $LN361+2127
	DD	imagerel $chain$6$?_prim@?$box_collider@$00$0A@@@QEAAXK@Z
pdata	ENDS
;	COMDAT pdata
pdata	SEGMENT
$pdata$7$?_prim@?$box_collider@$00$0A@@@QEAAXK@Z DD imagerel $LN361+2127
	DD	imagerel $LN361+2272
	DD	imagerel $chain$7$?_prim@?$box_collider@$00$0A@@@QEAAXK@Z
pdata	ENDS
;	COMDAT pdata
pdata	SEGMENT
$pdata$8$?_prim@?$box_collider@$00$0A@@@QEAAXK@Z DD imagerel $LN361+2272
	DD	imagerel $LN361+2289
	DD	imagerel $chain$8$?_prim@?$box_collider@$00$0A@@@QEAAXK@Z
pdata	ENDS
;	COMDAT pdata
pdata	SEGMENT
$pdata$9$?_prim@?$box_collider@$00$0A@@@QEAAXK@Z DD imagerel $LN361+2289
	DD	imagerel $LN361+2307
	DD	imagerel $chain$9$?_prim@?$box_collider@$00$0A@@@QEAAXK@Z
pdata	ENDS
;	COMDAT pdata
pdata	SEGMENT
$pdata$10$?_prim@?$box_collider@$00$0A@@@QEAAXK@Z DD imagerel $LN361+2307
	DD	imagerel $LN361+2334
	DD	imagerel $chain$10$?_prim@?$box_collider@$00$0A@@@QEAAXK@Z
pdata	ENDS
;	COMDAT pdata
pdata	SEGMENT
$pdata$11$?_prim@?$box_collider@$00$0A@@@QEAAXK@Z DD imagerel $LN361+2334
	DD	imagerel $LN361+2375
	DD	imagerel $chain$11$?_prim@?$box_collider@$00$0A@@@QEAAXK@Z
pdata	ENDS
;	COMDAT pdata
pdata	SEGMENT
$pdata$?_prim@?$box_collider@$00$00@@QEAAXK@Z DD imagerel $LN361
	DD	imagerel $LN361+303
	DD	imagerel $unwind$?_prim@?$box_collider@$00$00@@QEAAXK@Z
pdata	ENDS
;	COMDAT pdata
pdata	SEGMENT
$pdata$2$?_prim@?$box_collider@$00$00@@QEAAXK@Z DD imagerel $LN361+303
	DD	imagerel $LN361+450
	DD	imagerel $chain$2$?_prim@?$box_collider@$00$00@@QEAAXK@Z
pdata	ENDS
;	COMDAT pdata
pdata	SEGMENT
$pdata$4$?_prim@?$box_collider@$00$00@@QEAAXK@Z DD imagerel $LN361+450
	DD	imagerel $LN361+570
	DD	imagerel $chain$4$?_prim@?$box_collider@$00$00@@QEAAXK@Z
pdata	ENDS
;	COMDAT pdata
pdata	SEGMENT
$pdata$6$?_prim@?$box_collider@$00$00@@QEAAXK@Z DD imagerel $LN361+570
	DD	imagerel $LN361+2127
	DD	imagerel $chain$6$?_prim@?$box_collider@$00$00@@QEAAXK@Z
pdata	ENDS
;	COMDAT pdata
pdata	SEGMENT
$pdata$7$?_prim@?$box_collider@$00$00@@QEAAXK@Z DD imagerel $LN361+2127
	DD	imagerel $LN361+2272
	DD	imagerel $chain$7$?_prim@?$box_collider@$00$00@@QEAAXK@Z
pdata	ENDS
;	COMDAT pdata
pdata	SEGMENT
$pdata$8$?_prim@?$box_collider@$00$00@@QEAAXK@Z DD imagerel $LN361+2272
	DD	imagerel $LN361+2289
	DD	imagerel $chain$8$?_prim@?$box_collider@$00$00@@QEAAXK@Z
pdata	ENDS
;	COMDAT pdata
pdata	SEGMENT
$pdata$9$?_prim@?$box_collider@$00$00@@QEAAXK@Z DD imagerel $LN361+2289
	DD	imagerel $LN361+2307
	DD	imagerel $chain$9$?_prim@?$box_collider@$00$00@@QEAAXK@Z
pdata	ENDS
;	COMDAT pdata
pdata	SEGMENT
$pdata$10$?_prim@?$box_collider@$00$00@@QEAAXK@Z DD imagerel $LN361+2307
	DD	imagerel $LN361+2334
	DD	imagerel $chain$10$?_prim@?$box_collider@$00$00@@QEAAXK@Z
pdata	ENDS
;	COMDAT pdata
pdata	SEGMENT
$pdata$11$?_prim@?$box_collider@$00$00@@QEAAXK@Z DD imagerel $LN361+2334
	DD	imagerel $LN361+2375
	DD	imagerel $chain$11$?_prim@?$box_collider@$00$00@@QEAAXK@Z
pdata	ENDS
;	COMDAT pdata
pdata	SEGMENT
$pdata$?_stab@?$box_collider@$0A@$0A@@@QEAAXPEBVAABBNoLeafNode@Opcode@@@Z DD imagerel $LN44
	DD	imagerel $LN44+219
	DD	imagerel $unwind$?_stab@?$box_collider@$0A@$0A@@@QEAAXPEBVAABBNoLeafNode@Opcode@@@Z
pdata	ENDS
;	COMDAT pdata
pdata	SEGMENT
$pdata$?_init@?$box_collider@$0A@$0A@@@QEAAXPEAVCOLLIDER@CDB@@PEAU?$_vector3@M@@PEAVTRI@3@AEBU4@3@Z DD imagerel $LN16
	DD	imagerel $LN16+197
	DD	imagerel $unwind$?_init@?$box_collider@$0A@$0A@@@QEAAXPEAVCOLLIDER@CDB@@PEAU?$_vector3@M@@PEAVTRI@3@AEBU4@3@Z
pdata	ENDS
;	COMDAT pdata
pdata	SEGMENT
$pdata$?_stab@?$box_collider@$0A@$00@@QEAAXPEBVAABBNoLeafNode@Opcode@@@Z DD imagerel $LN51
	DD	imagerel $LN51+283
	DD	imagerel $unwind$?_stab@?$box_collider@$0A@$00@@QEAAXPEBVAABBNoLeafNode@Opcode@@@Z
pdata	ENDS
;	COMDAT pdata
pdata	SEGMENT
$pdata$?_init@?$box_collider@$0A@$00@@QEAAXPEAVCOLLIDER@CDB@@PEAU?$_vector3@M@@PEAVTRI@3@AEBU4@3@Z DD imagerel $LN16
	DD	imagerel $LN16+197
	DD	imagerel $unwind$?_init@?$box_collider@$0A@$00@@QEAAXPEAVCOLLIDER@CDB@@PEAU?$_vector3@M@@PEAVTRI@3@AEBU4@3@Z
pdata	ENDS
;	COMDAT pdata
pdata	SEGMENT
$pdata$?_stab@?$box_collider@$00$0A@@@QEAAXPEBVAABBNoLeafNode@Opcode@@@Z DD imagerel $LN44
	DD	imagerel $LN44+219
	DD	imagerel $unwind$?_stab@?$box_collider@$00$0A@@@QEAAXPEBVAABBNoLeafNode@Opcode@@@Z
pdata	ENDS
;	COMDAT pdata
pdata	SEGMENT
$pdata$?_init@?$box_collider@$00$0A@@@QEAAXPEAVCOLLIDER@CDB@@PEAU?$_vector3@M@@PEAVTRI@3@AEBU4@3@Z DD imagerel $LN16
	DD	imagerel $LN16+197
	DD	imagerel $unwind$?_init@?$box_collider@$00$0A@@@QEAAXPEAVCOLLIDER@CDB@@PEAU?$_vector3@M@@PEAVTRI@3@AEBU4@3@Z
pdata	ENDS
;	COMDAT pdata
pdata	SEGMENT
$pdata$?_stab@?$box_collider@$00$00@@QEAAXPEBVAABBNoLeafNode@Opcode@@@Z DD imagerel $LN51
	DD	imagerel $LN51+283
	DD	imagerel $unwind$?_stab@?$box_collider@$00$00@@QEAAXPEBVAABBNoLeafNode@Opcode@@@Z
pdata	ENDS
;	COMDAT pdata
pdata	SEGMENT
$pdata$?_init@?$box_collider@$00$00@@QEAAXPEAVCOLLIDER@CDB@@PEAU?$_vector3@M@@PEAVTRI@3@AEBU4@3@Z DD imagerel $LN16
	DD	imagerel $LN16+197
	DD	imagerel $unwind$?_init@?$box_collider@$00$00@@QEAAXPEAVCOLLIDER@CDB@@PEAU?$_vector3@M@@PEAVTRI@3@AEBU4@3@Z
pdata	ENDS
;	COMDAT pdata
pdata	SEGMENT
$pdata$?box_query@COLLIDER@CDB@@QEAAXPEBVMODEL@2@AEBU?$_vector3@M@@1@Z DD imagerel $LN178
	DD	imagerel $LN178+397
	DD	imagerel $unwind$?box_query@COLLIDER@CDB@@QEAAXPEBVMODEL@2@AEBU?$_vector3@M@@1@Z
pdata	ENDS
;	COMDAT pdata
pdata	SEGMENT
$pdata$?planeBoxOverlap@@YA_NAEBVicePoint@IceMaths@@M0@Z DD imagerel $LN60
	DD	imagerel $LN60+44
	DD	imagerel $unwind$?planeBoxOverlap@@YA_NAEBVicePoint@IceMaths@@M0@Z
pdata	ENDS
;	COMDAT pdata
pdata	SEGMENT
$pdata$2$?planeBoxOverlap@@YA_NAEBVicePoint@IceMaths@@M0@Z DD imagerel $LN60+44
	DD	imagerel $LN60+219
	DD	imagerel $chain$2$?planeBoxOverlap@@YA_NAEBVicePoint@IceMaths@@M0@Z
pdata	ENDS
;	COMDAT pdata
pdata	SEGMENT
$pdata$3$?planeBoxOverlap@@YA_NAEBVicePoint@IceMaths@@M0@Z DD imagerel $LN60+219
	DD	imagerel $LN60+297
	DD	imagerel $chain$3$?planeBoxOverlap@@YA_NAEBVicePoint@IceMaths@@M0@Z
;	COMDAT xdata
xdata	SEGMENT
$chain$3$?planeBoxOverlap@@YA_NAEBVicePoint@IceMaths@@M0@Z DD 040021H
	DD	039800H
	DD	057800H
	DD	imagerel $LN60
	DD	imagerel $LN60+44
	DD	imagerel $unwind$?planeBoxOverlap@@YA_NAEBVicePoint@IceMaths@@M0@Z
xdata	ENDS
;	COMDAT xdata
xdata	SEGMENT
$chain$2$?planeBoxOverlap@@YA_NAEBVicePoint@IceMaths@@M0@Z DD 065b21H
	DD	03985bH
	DD	05782fH
	DD	01b806H
	DD	imagerel $LN60
	DD	imagerel $LN60+44
	DD	imagerel $unwind$?planeBoxOverlap@@YA_NAEBVicePoint@IceMaths@@M0@Z
xdata	ENDS
;	COMDAT xdata
xdata	SEGMENT
$unwind$?planeBoxOverlap@@YA_NAEBVicePoint@IceMaths@@M0@Z DD 092601H
	DD	0c826H
	DD	02a821H
	DD	04881bH
	DD	066815H
	DD	0e204H
xdata	ENDS
;	COMDAT xdata
xdata	SEGMENT
$unwind$?box_query@COLLIDER@CDB@@QEAAXPEBVMODEL@2@AEBU?$_vector3@M@@1@Z DD 0f6701H
	DD	0a7867H
	DD	0b685fH
	DD	01de421H
	DD	01c7421H
	DD	01b6421H
	DD	01a3421H
	DD	0180121H
	DD	05015H
xdata	ENDS
;	COMDAT xdata
xdata	SEGMENT
$unwind$?_init@?$box_collider@$00$00@@QEAAXPEAVCOLLIDER@CDB@@PEAU?$_vector3@M@@PEAVTRI@3@AEBU4@3@Z DD 010401H
	DD	02204H
xdata	ENDS
;	COMDAT xdata
xdata	SEGMENT
$unwind$?_stab@?$box_collider@$00$00@@QEAAXPEBVAABBNoLeafNode@Opcode@@@Z DD 082401H
	DD	026824H
	DD	09640fH
	DD	08340fH
	DD	0700b520fH
xdata	ENDS
;	COMDAT xdata
xdata	SEGMENT
$unwind$?_init@?$box_collider@$00$0A@@@QEAAXPEAVCOLLIDER@CDB@@PEAU?$_vector3@M@@PEAVTRI@3@AEBU4@3@Z DD 010401H
	DD	02204H
xdata	ENDS
;	COMDAT xdata
xdata	SEGMENT
$unwind$?_stab@?$box_collider@$00$0A@@@QEAAXPEBVAABBNoLeafNode@Opcode@@@Z DD 061501H
	DD	026815H
	DD	08340aH
	DD	07006520aH
xdata	ENDS
;	COMDAT xdata
xdata	SEGMENT
$unwind$?_init@?$box_collider@$0A@$00@@QEAAXPEAVCOLLIDER@CDB@@PEAU?$_vector3@M@@PEAVTRI@3@AEBU4@3@Z DD 010401H
	DD	02204H
xdata	ENDS
;	COMDAT xdata
xdata	SEGMENT
$unwind$?_stab@?$box_collider@$0A@$00@@QEAAXPEBVAABBNoLeafNode@Opcode@@@Z DD 082401H
	DD	026824H
	DD	09640fH
	DD	08340fH
	DD	0700b520fH
xdata	ENDS
;	COMDAT xdata
xdata	SEGMENT
$unwind$?_init@?$box_collider@$0A@$0A@@@QEAAXPEAVCOLLIDER@CDB@@PEAU?$_vector3@M@@PEAVTRI@3@AEBU4@3@Z DD 010401H
	DD	02204H
xdata	ENDS
;	COMDAT xdata
xdata	SEGMENT
$unwind$?_stab@?$box_collider@$0A@$0A@@@QEAAXPEBVAABBNoLeafNode@Opcode@@@Z DD 061501H
	DD	026815H
	DD	08340aH
	DD	07006520aH
xdata	ENDS
;	COMDAT xdata
xdata	SEGMENT
$chain$11$?_prim@?$box_collider@$00$00@@QEAAXK@Z DD 021H
	DD	imagerel $LN361
	DD	imagerel $LN361+303
	DD	imagerel $unwind$?_prim@?$box_collider@$00$00@@QEAAXK@Z
xdata	ENDS
;	COMDAT xdata
xdata	SEGMENT
$chain$10$?_prim@?$box_collider@$00$00@@QEAAXK@Z DD 021H
	DD	imagerel $LN361+303
	DD	imagerel $LN361+450
	DD	imagerel $chain$2$?_prim@?$box_collider@$00$00@@QEAAXK@Z
xdata	ENDS
;	COMDAT xdata
xdata	SEGMENT
$chain$9$?_prim@?$box_collider@$00$00@@QEAAXK@Z DD 021H
	DD	imagerel $LN361+450
	DD	imagerel $LN361+570
	DD	imagerel $chain$4$?_prim@?$box_collider@$00$00@@QEAAXK@Z
xdata	ENDS
;	COMDAT xdata
xdata	SEGMENT
$chain$8$?_prim@?$box_collider@$00$00@@QEAAXK@Z DD 021H
	DD	imagerel $LN361+570
	DD	imagerel $LN361+2127
	DD	imagerel $chain$6$?_prim@?$box_collider@$00$00@@QEAAXK@Z
xdata	ENDS
;	COMDAT xdata
xdata	SEGMENT
$chain$7$?_prim@?$box_collider@$00$00@@QEAAXK@Z DD 020821H
	DD	0253408H
	DD	imagerel $LN361+570
	DD	imagerel $LN361+2127
	DD	imagerel $chain$6$?_prim@?$box_collider@$00$00@@QEAAXK@Z
xdata	ENDS
;	COMDAT xdata
xdata	SEGMENT
$chain$6$?_prim@?$box_collider@$00$00@@QEAAXK@Z DD 041121H
	DD	0ad811H
	DD	0116808H
	DD	imagerel $LN361+450
	DD	imagerel $LN361+570
	DD	imagerel $chain$4$?_prim@?$box_collider@$00$00@@QEAAXK@Z
xdata	ENDS
;	COMDAT xdata
xdata	SEGMENT
$chain$4$?_prim@?$box_collider@$00$00@@QEAAXK@Z DD 041221H
	DD	08f812H
	DD	0f8809H
	DD	imagerel $LN361+303
	DD	imagerel $LN361+450
	DD	imagerel $chain$2$?_prim@?$box_collider@$00$00@@QEAAXK@Z
xdata	ENDS
;	COMDAT xdata
xdata	SEGMENT
$chain$2$?_prim@?$box_collider@$00$00@@QEAAXK@Z DD 062121H
	DD	0cb821H
	DD	0da818H
	DD	0e9809H
	DD	imagerel $LN361
	DD	imagerel $LN361+303
	DD	imagerel $unwind$?_prim@?$box_collider@$00$00@@QEAAXK@Z
xdata	ENDS
;	COMDAT xdata
xdata	SEGMENT
$unwind$?_prim@?$box_collider@$00$00@@QEAAXK@Z DD 0f3a01H
	DD	09e83aH
	DD	0bc828H
	DD	0107820H
	DD	0260118H
	DD	0e00ff011H
	DD	0c00bd00dH
	DD	060087009H
	DD	05007H
xdata	ENDS
;	COMDAT xdata
xdata	SEGMENT
$chain$11$?_prim@?$box_collider@$00$0A@@@QEAAXK@Z DD 021H
	DD	imagerel $LN361
	DD	imagerel $LN361+303
	DD	imagerel $unwind$?_prim@?$box_collider@$00$0A@@@QEAAXK@Z
xdata	ENDS
;	COMDAT xdata
xdata	SEGMENT
$chain$10$?_prim@?$box_collider@$00$0A@@@QEAAXK@Z DD 021H
	DD	imagerel $LN361+303
	DD	imagerel $LN361+450
	DD	imagerel $chain$2$?_prim@?$box_collider@$00$0A@@@QEAAXK@Z
xdata	ENDS
;	COMDAT xdata
xdata	SEGMENT
$chain$9$?_prim@?$box_collider@$00$0A@@@QEAAXK@Z DD 021H
	DD	imagerel $LN361+450
	DD	imagerel $LN361+570
	DD	imagerel $chain$4$?_prim@?$box_collider@$00$0A@@@QEAAXK@Z
xdata	ENDS
;	COMDAT xdata
xdata	SEGMENT
$chain$8$?_prim@?$box_collider@$00$0A@@@QEAAXK@Z DD 021H
	DD	imagerel $LN361+570
	DD	imagerel $LN361+2127
	DD	imagerel $chain$6$?_prim@?$box_collider@$00$0A@@@QEAAXK@Z
xdata	ENDS
;	COMDAT xdata
xdata	SEGMENT
$chain$7$?_prim@?$box_collider@$00$0A@@@QEAAXK@Z DD 020821H
	DD	0253408H
	DD	imagerel $LN361+570
	DD	imagerel $LN361+2127
	DD	imagerel $chain$6$?_prim@?$box_collider@$00$0A@@@QEAAXK@Z
xdata	ENDS
;	COMDAT xdata
xdata	SEGMENT
$chain$6$?_prim@?$box_collider@$00$0A@@@QEAAXK@Z DD 041121H
	DD	0ad811H
	DD	0116808H
	DD	imagerel $LN361+450
	DD	imagerel $LN361+570
	DD	imagerel $chain$4$?_prim@?$box_collider@$00$0A@@@QEAAXK@Z
xdata	ENDS
;	COMDAT xdata
xdata	SEGMENT
$chain$4$?_prim@?$box_collider@$00$0A@@@QEAAXK@Z DD 041221H
	DD	08f812H
	DD	0f8809H
	DD	imagerel $LN361+303
	DD	imagerel $LN361+450
	DD	imagerel $chain$2$?_prim@?$box_collider@$00$0A@@@QEAAXK@Z
xdata	ENDS
;	COMDAT xdata
xdata	SEGMENT
$chain$2$?_prim@?$box_collider@$00$0A@@@QEAAXK@Z DD 062121H
	DD	0cb821H
	DD	0da818H
	DD	0e9809H
	DD	imagerel $LN361
	DD	imagerel $LN361+303
	DD	imagerel $unwind$?_prim@?$box_collider@$00$0A@@@QEAAXK@Z
xdata	ENDS
;	COMDAT xdata
xdata	SEGMENT
$unwind$?_prim@?$box_collider@$00$0A@@@QEAAXK@Z DD 0f3a01H
	DD	09e83aH
	DD	0bc828H
	DD	0107820H
	DD	0260118H
	DD	0e00ff011H
	DD	0c00bd00dH
	DD	060087009H
	DD	05007H
xdata	ENDS
;	COMDAT xdata
xdata	SEGMENT
$chain$7$?_prim@?$box_collider@$0A@$00@@QEAAXK@Z DD 021H
	DD	imagerel $LN358
	DD	imagerel $LN358+298
	DD	imagerel $unwind$?_prim@?$box_collider@$0A@$00@@QEAAXK@Z
xdata	ENDS
;	COMDAT xdata
xdata	SEGMENT
$chain$6$?_prim@?$box_collider@$0A@$00@@QEAAXK@Z DD 021H
	DD	imagerel $LN358+298
	DD	imagerel $LN358+417
	DD	imagerel $chain$1$?_prim@?$box_collider@$0A@$00@@QEAAXK@Z
xdata	ENDS
;	COMDAT xdata
xdata	SEGMENT
$chain$5$?_prim@?$box_collider@$0A@$00@@QEAAXK@Z DD 021H
	DD	imagerel $LN358+417
	DD	imagerel $LN358+833
	DD	imagerel $chain$3$?_prim@?$box_collider@$0A@$00@@QEAAXK@Z
xdata	ENDS
;	COMDAT xdata
xdata	SEGMENT
$chain$4$?_prim@?$box_collider@$0A@$00@@QEAAXK@Z DD 020821H
	DD	0223408H
	DD	imagerel $LN358+417
	DD	imagerel $LN358+833
	DD	imagerel $chain$3$?_prim@?$box_collider@$0A@$00@@QEAAXK@Z
xdata	ENDS
;	COMDAT xdata
xdata	SEGMENT
$chain$3$?_prim@?$box_collider@$0A@$00@@QEAAXK@Z DD 041521H
	DD	0c7815H
	DD	0d6808H
	DD	imagerel $LN358+298
	DD	imagerel $LN358+417
	DD	imagerel $chain$1$?_prim@?$box_collider@$0A@$00@@QEAAXK@Z
xdata	ENDS
;	COMDAT xdata
xdata	SEGMENT
$chain$1$?_prim@?$box_collider@$0A@$00@@QEAAXK@Z DD 041221H
	DD	09a812H
	DD	0a9809H
	DD	imagerel $LN358
	DD	imagerel $LN358+298
	DD	imagerel $unwind$?_prim@?$box_collider@$0A@$00@@QEAAXK@Z
xdata	ENDS
;	COMDAT xdata
xdata	SEGMENT
$unwind$?_prim@?$box_collider@$0A@$00@@QEAAXK@Z DD 0134501H
	DD	06d845H
	DD	07c83fH
	DD	08b82fH
	DD	0b8827H
	DD	025641eH
	DD	024541eH
	DD	01c011eH
	DD	0e015f017H
	DD	0c011d013H
	DD	0700fH
xdata	ENDS
;	COMDAT xdata
xdata	SEGMENT
$chain$7$?_prim@?$box_collider@$0A@$0A@@@QEAAXK@Z DD 021H
	DD	imagerel $LN358
	DD	imagerel $LN358+298
	DD	imagerel $unwind$?_prim@?$box_collider@$0A@$0A@@@QEAAXK@Z
xdata	ENDS
;	COMDAT xdata
xdata	SEGMENT
$chain$6$?_prim@?$box_collider@$0A@$0A@@@QEAAXK@Z DD 021H
	DD	imagerel $LN358+298
	DD	imagerel $LN358+417
	DD	imagerel $chain$1$?_prim@?$box_collider@$0A@$0A@@@QEAAXK@Z
xdata	ENDS
;	COMDAT xdata
xdata	SEGMENT
$chain$5$?_prim@?$box_collider@$0A@$0A@@@QEAAXK@Z DD 021H
	DD	imagerel $LN358+417
	DD	imagerel $LN358+833
	DD	imagerel $chain$3$?_prim@?$box_collider@$0A@$0A@@@QEAAXK@Z
xdata	ENDS
;	COMDAT xdata
xdata	SEGMENT
$chain$4$?_prim@?$box_collider@$0A@$0A@@@QEAAXK@Z DD 020821H
	DD	0223408H
	DD	imagerel $LN358+417
	DD	imagerel $LN358+833
	DD	imagerel $chain$3$?_prim@?$box_collider@$0A@$0A@@@QEAAXK@Z
xdata	ENDS
;	COMDAT xdata
xdata	SEGMENT
$chain$3$?_prim@?$box_collider@$0A@$0A@@@QEAAXK@Z DD 041521H
	DD	0c7815H
	DD	0d6808H
	DD	imagerel $LN358+298
	DD	imagerel $LN358+417
	DD	imagerel $chain$1$?_prim@?$box_collider@$0A@$0A@@@QEAAXK@Z
xdata	ENDS
;	COMDAT xdata
xdata	SEGMENT
$chain$1$?_prim@?$box_collider@$0A@$0A@@@QEAAXK@Z DD 041221H
	DD	09a812H
	DD	0a9809H
	DD	imagerel $LN358
	DD	imagerel $LN358+298
	DD	imagerel $unwind$?_prim@?$box_collider@$0A@$0A@@@QEAAXK@Z
xdata	ENDS
;	COMDAT xdata
xdata	SEGMENT
$unwind$?_prim@?$box_collider@$0A@$0A@@@QEAAXK@Z DD 0134501H
	DD	06d845H
	DD	07c83fH
	DD	08b82fH
	DD	0b8827H
	DD	025641eH
	DD	024541eH
	DD	01c011eH
	DD	0e015f017H
	DD	0c011d013H
	DD	0700fH
xdata	ENDS
;	COMDAT xdata
xdata	SEGMENT
$chain$8$?_tri@?$box_collider@$00$00@@QEAA_NXZ DD 021H
	DD	imagerel $LN341
	DD	imagerel $LN341+424
	DD	imagerel $unwind$?_tri@?$box_collider@$00$00@@QEAA_NXZ
xdata	ENDS
;	COMDAT xdata
xdata	SEGMENT
$chain$7$?_tri@?$box_collider@$00$00@@QEAA_NXZ DD 020021H
	DD	0b7800H
	DD	imagerel $LN341
	DD	imagerel $LN341+424
	DD	imagerel $unwind$?_tri@?$box_collider@$00$00@@QEAA_NXZ
xdata	ENDS
;	COMDAT xdata
xdata	SEGMENT
$chain$6$?_tri@?$box_collider@$00$00@@QEAA_NXZ DD 021H
	DD	imagerel $LN341
	DD	imagerel $LN341+424
	DD	imagerel $unwind$?_tri@?$box_collider@$00$00@@QEAA_NXZ
xdata	ENDS
;	COMDAT xdata
xdata	SEGMENT
$chain$5$?_tri@?$box_collider@$00$00@@QEAA_NXZ DD 020821H
	DD	0b7808H
	DD	imagerel $LN341
	DD	imagerel $LN341+424
	DD	imagerel $unwind$?_tri@?$box_collider@$00$00@@QEAA_NXZ
xdata	ENDS
;	COMDAT xdata
xdata	SEGMENT
$unwind$?_tri@?$box_collider@$00$00@@QEAA_NXZ DD 014a101H
	DD	03f8a1H
	DD	04e89bH
	DD	05d895H
	DD	0a888bH
	DD	0c6882H
	DD	06c829H
	DD	07b824H
	DD	08a81fH
	DD	099814H
	DD	01b010aH
xdata	ENDS
;	COMDAT xdata
xdata	SEGMENT
$chain$8$?_tri@?$box_collider@$00$0A@@@QEAA_NXZ DD 021H
	DD	imagerel $LN341
	DD	imagerel $LN341+424
	DD	imagerel $unwind$?_tri@?$box_collider@$00$0A@@@QEAA_NXZ
xdata	ENDS
;	COMDAT xdata
xdata	SEGMENT
$chain$7$?_tri@?$box_collider@$00$0A@@@QEAA_NXZ DD 020021H
	DD	0b7800H
	DD	imagerel $LN341
	DD	imagerel $LN341+424
	DD	imagerel $unwind$?_tri@?$box_collider@$00$0A@@@QEAA_NXZ
xdata	ENDS
;	COMDAT xdata
xdata	SEGMENT
$chain$6$?_tri@?$box_collider@$00$0A@@@QEAA_NXZ DD 021H
	DD	imagerel $LN341
	DD	imagerel $LN341+424
	DD	imagerel $unwind$?_tri@?$box_collider@$00$0A@@@QEAA_NXZ
xdata	ENDS
;	COMDAT xdata
xdata	SEGMENT
$chain$5$?_tri@?$box_collider@$00$0A@@@QEAA_NXZ DD 020821H
	DD	0b7808H
	DD	imagerel $LN341
	DD	imagerel $LN341+424
	DD	imagerel $unwind$?_tri@?$box_collider@$00$0A@@@QEAA_NXZ
xdata	ENDS
;	COMDAT xdata
xdata	SEGMENT
$unwind$?_tri@?$box_collider@$00$0A@@@QEAA_NXZ DD 014a101H
	DD	03f8a1H
	DD	04e89bH
	DD	05d895H
	DD	0a888bH
	DD	0c6882H
	DD	06c829H
	DD	07b824H
	DD	08a81fH
	DD	099814H
	DD	01b010aH
xdata	ENDS
;	COMDAT xdata
xdata	SEGMENT
$chain$8$?_tri@?$box_collider@$0A@$00@@QEAA_NXZ DD 021H
	DD	imagerel $LN340
	DD	imagerel $LN340+402
	DD	imagerel $unwind$?_tri@?$box_collider@$0A@$00@@QEAA_NXZ
xdata	ENDS
;	COMDAT xdata
xdata	SEGMENT
$chain$7$?_tri@?$box_collider@$0A@$00@@QEAA_NXZ DD 020021H
	DD	0e800H
	DD	imagerel $LN340
	DD	imagerel $LN340+402
	DD	imagerel $unwind$?_tri@?$box_collider@$0A@$00@@QEAA_NXZ
xdata	ENDS
;	COMDAT xdata
xdata	SEGMENT
$chain$6$?_tri@?$box_collider@$0A@$00@@QEAA_NXZ DD 021H
	DD	imagerel $LN340
	DD	imagerel $LN340+402
	DD	imagerel $unwind$?_tri@?$box_collider@$0A@$00@@QEAA_NXZ
xdata	ENDS
;	COMDAT xdata
xdata	SEGMENT
$chain$5$?_tri@?$box_collider@$0A@$00@@QEAA_NXZ DD 020521H
	DD	0e805H
	DD	imagerel $LN340
	DD	imagerel $LN340+402
	DD	imagerel $unwind$?_tri@?$box_collider@$0A@$00@@QEAA_NXZ
xdata	ENDS
;	COMDAT xdata
xdata	SEGMENT
$unwind$?_tri@?$box_collider@$0A@$00@@QEAA_NXZ DD 0128c01H
	DD	01d88cH
	DD	02c886H
	DD	03b880H
	DD	04a877H
	DD	068871H
	DD	059824H
	DD	07781eH
	DD	086814H
	DD	0130107H
xdata	ENDS
;	COMDAT xdata
xdata	SEGMENT
$chain$8$?_tri@?$box_collider@$0A@$0A@@@QEAA_NXZ DD 021H
	DD	imagerel $LN340
	DD	imagerel $LN340+402
	DD	imagerel $unwind$?_tri@?$box_collider@$0A@$0A@@@QEAA_NXZ
xdata	ENDS
;	COMDAT xdata
xdata	SEGMENT
$chain$7$?_tri@?$box_collider@$0A@$0A@@@QEAA_NXZ DD 020021H
	DD	0e800H
	DD	imagerel $LN340
	DD	imagerel $LN340+402
	DD	imagerel $unwind$?_tri@?$box_collider@$0A@$0A@@@QEAA_NXZ
xdata	ENDS
;	COMDAT xdata
xdata	SEGMENT
$chain$6$?_tri@?$box_collider@$0A@$0A@@@QEAA_NXZ DD 021H
	DD	imagerel $LN340
	DD	imagerel $LN340+402
	DD	imagerel $unwind$?_tri@?$box_collider@$0A@$0A@@@QEAA_NXZ
xdata	ENDS
;	COMDAT xdata
xdata	SEGMENT
$chain$5$?_tri@?$box_collider@$0A@$0A@@@QEAA_NXZ DD 020521H
	DD	0e805H
	DD	imagerel $LN340
	DD	imagerel $LN340+402
	DD	imagerel $unwind$?_tri@?$box_collider@$0A@$0A@@@QEAA_NXZ
xdata	ENDS
;	COMDAT xdata
xdata	SEGMENT
$unwind$?_tri@?$box_collider@$0A@$0A@@@QEAA_NXZ DD 0128c01H
	DD	01d88cH
	DD	02c886H
	DD	03b880H
	DD	04a877H
	DD	068871H
	DD	059824H
	DD	07781eH
	DD	086814H
	DD	0130107H
xdata	ENDS
; Function compile flags: /Ogtpy
; File c:\x-ray\stcop\rgs\src\xrcdb\xrcdb_box.cpp
; File c:\x-ray\stcop\rgs\src\xrcdb\opc_point.h
; File c:\x-ray\stcop\rgs\src\xrcdb\xrcdb_box.cpp
; File c:\x-ray\stcop\rgs\src\xrcdb\opc_point.h
; File c:\x-ray\stcop\rgs\src\xrcdb\xrcdb_box.cpp
;	COMDAT ?planeBoxOverlap@@YA_NAEBVicePoint@IceMaths@@M0@Z
_TEXT	SEGMENT
normal$ = 128
d$ = 136
maxbox$ = 144
?planeBoxOverlap@@YA_NAEBVicePoint@IceMaths@@M0@Z PROC	; planeBoxOverlap, COMDAT

; 20   : {

$LN60:
	sub	rsp, 120				; 00000078H

; 21   : 	Point vmin, vmax;
; 22   : 	for(udword q=0;q<=2;q++)
; 23   : 	{
; 24   : 		if(((const float*)normal)[q]>0.0f)	{ ((float*)vmin)[q]=-((const float*)maxbox)[q]; ((float*)vmax)[q]=((const float*)maxbox)[q]; }

	movss	xmm3, DWORD PTR [rcx]
	movss	xmm0, DWORD PTR __xmm@80000000800000008000000080000000
	movaps	XMMWORD PTR [rsp+96], xmm6
	movaps	XMMWORD PTR [rsp+64], xmm8
	movaps	XMMWORD PTR [rsp+32], xmm10
	movaps	XMMWORD PTR [rsp], xmm12
	xorps	xmm6, xmm6
	comiss	xmm3, xmm6
	movaps	XMMWORD PTR [rsp+16], xmm11
	movaps	xmm12, xmm1
	jbe	SHORT $LN4@planeBoxOv
	movss	xmm4, DWORD PTR [r8]
	movaps	xmm5, xmm4
	xorps	xmm5, xmm0

; 25   : 		else								{ ((float*)vmin)[q]=((const float*)maxbox)[q]; ((float*)vmax)[q]=-((const float*)maxbox)[q]; }

	jmp	SHORT $LN6@planeBoxOv
$LN4@planeBoxOv:
	movss	xmm5, DWORD PTR [r8]
	movaps	xmm4, xmm5
	xorps	xmm4, xmm0
$LN6@planeBoxOv:

; 21   : 	Point vmin, vmax;
; 22   : 	for(udword q=0;q<=2;q++)
; 23   : 	{
; 24   : 		if(((const float*)normal)[q]>0.0f)	{ ((float*)vmin)[q]=-((const float*)maxbox)[q]; ((float*)vmax)[q]=((const float*)maxbox)[q]; }

	movss	xmm8, DWORD PTR [rcx+4]
	movaps	XMMWORD PTR [rsp+80], xmm7
	comiss	xmm8, xmm6
	jbe	SHORT $LN54@planeBoxOv
	movss	xmm7, DWORD PTR [r8+4]
	movaps	xmm1, xmm7
	xorps	xmm1, xmm0

; 25   : 		else								{ ((float*)vmin)[q]=((const float*)maxbox)[q]; ((float*)vmax)[q]=-((const float*)maxbox)[q]; }

	jmp	SHORT $LN55@planeBoxOv
$LN54@planeBoxOv:
	movss	xmm1, DWORD PTR [r8+4]
	movaps	xmm7, xmm1
	xorps	xmm7, xmm0
$LN55@planeBoxOv:

; 21   : 	Point vmin, vmax;
; 22   : 	for(udword q=0;q<=2;q++)
; 23   : 	{
; 24   : 		if(((const float*)normal)[q]>0.0f)	{ ((float*)vmin)[q]=-((const float*)maxbox)[q]; ((float*)vmax)[q]=((const float*)maxbox)[q]; }

	movss	xmm10, DWORD PTR [rcx+8]
	movaps	XMMWORD PTR [rsp+48], xmm9
	comiss	xmm10, xmm6
	jbe	SHORT $LN57@planeBoxOv
	movss	xmm9, DWORD PTR [r8+8]
	movaps	xmm11, xmm9
	xorps	xmm11, xmm0

; 25   : 		else								{ ((float*)vmin)[q]=((const float*)maxbox)[q]; ((float*)vmax)[q]=-((const float*)maxbox)[q]; }

	jmp	SHORT $LN58@planeBoxOv
$LN57@planeBoxOv:
	movss	xmm11, DWORD PTR [r8+8]
	movaps	xmm9, xmm11
	xorps	xmm9, xmm0
$LN58@planeBoxOv:
; File c:\x-ray\stcop\rgs\src\xrcdb\opc_point.h

; 392  : 		inline_	float			operator|(const Point& p)			const		{ return x*p.x + y*p.y + z*p.z;						}

	movaps	xmm2, xmm3
	movaps	xmm0, xmm8
	mulss	xmm2, xmm5
	mulss	xmm0, xmm1
	movaps	xmm1, xmm10
	addss	xmm2, xmm0
	mulss	xmm1, xmm11
	movaps	xmm11, XMMWORD PTR [rsp+16]
	addss	xmm2, xmm1
; File c:\x-ray\stcop\rgs\src\xrcdb\xrcdb_box.cpp

; 27   : 	if((normal|vmin)+d>0.0f) return false;

	addss	xmm2, xmm12
	comiss	xmm2, xmm6
	ja	SHORT $LN1@planeBoxOv
; File c:\x-ray\stcop\rgs\src\xrcdb\opc_point.h

; 392  : 		inline_	float			operator|(const Point& p)			const		{ return x*p.x + y*p.y + z*p.z;						}

	mulss	xmm3, xmm4
	mulss	xmm8, xmm7
	mulss	xmm10, xmm9
	addss	xmm3, xmm8
	addss	xmm3, xmm10
; File c:\x-ray\stcop\rgs\src\xrcdb\xrcdb_box.cpp

; 28   : 	if((normal|vmax)+d>=0.0f) return true;

	addss	xmm3, xmm12
	comiss	xmm3, xmm6
	jb	SHORT $LN1@planeBoxOv
	mov	al, 1
	jmp	SHORT $LN11@planeBoxOv
$LN1@planeBoxOv:

; 29   : 
; 30   : 	return false;

	xor	al, al
$LN11@planeBoxOv:
	movaps	xmm9, XMMWORD PTR [rsp+48]
	movaps	xmm7, XMMWORD PTR [rsp+80]

; 31   : }

	movaps	xmm6, XMMWORD PTR [rsp+96]
	movaps	xmm8, XMMWORD PTR [rsp+64]
	movaps	xmm10, XMMWORD PTR [rsp+32]
	movaps	xmm12, XMMWORD PTR [rsp]
	add	rsp, 120				; 00000078H
	ret	0
?planeBoxOverlap@@YA_NAEBVicePoint@IceMaths@@M0@Z ENDP	; planeBoxOverlap
_TEXT	ENDS
; Function compile flags: /Ogtpy
; File c:\x-ray\stcop\rgs\src\xrcdb\xrcdb_box.cpp
; File c:\x-ray\stcop\rgs\src\xrcdb\xrcdb.h
; File c:\x-ray\stcop\rgs\src\xrcdb\xrcdb_box.cpp
; File c:\x-ray\stcop\rgs\src\xrcdb\xrcdb.h
; File c:\x-ray\stcop\rgs\src\xrcdb\opc_point.h
; File c:\x-ray\stcop\rgs\src\xrcdb\opc_optimizedtree.h
; File c:\x-ray\stcop\rgs\src\xrcdb\xrcdb_box.cpp
; File c:\x-ray\stcop\rgs\src\xrcdb\opc_optimizedtree.h
; File c:\program files (x86)\microsoft visual studio 12.0\vc\include\vector
; File c:\x-ray\stcop\rgs\src\xrcdb\opc_point.h
; File c:\x-ray\stcop\rgs\src\xrcdb\opc_optimizedtree.h
; File c:\program files (x86)\microsoft visual studio 12.0\vc\include\vector
; File c:\x-ray\stcop\rgs\src\xrcdb\xrcdb_box.cpp
; File c:\x-ray\stcop\rgs\src\xrcore\_vector3d.h
; File c:\x-ray\stcop\rgs\src\xrcdb\xrcdb_box.cpp
; File c:\x-ray\stcop\rgs\src\xrcore\_vector3d.h
; File c:\x-ray\stcop\rgs\src\xrcdb\opc_point.h
; File c:\x-ray\stcop\rgs\src\xrcdb\xrcdb_box.cpp
; File c:\x-ray\stcop\rgs\src\xrcore\_vector3d.h
; File c:\x-ray\stcop\rgs\src\xrcdb\xrcdb_box.cpp
; File c:\x-ray\stcop\rgs\src\xrcore\_vector3d.h
; File c:\x-ray\stcop\rgs\src\xrcdb\xrcdb_box.cpp
; File c:\x-ray\stcop\rgs\src\xrcdb\opc_point.h
; File c:\x-ray\stcop\rgs\src\xrcdb\xrcdb_box.cpp
; File c:\x-ray\stcop\rgs\src\xrcore\_vector3d.h
; File c:\x-ray\stcop\rgs\src\xrcdb\xrcdb_box.cpp
; File c:\x-ray\stcop\rgs\src\xrcdb\opc_point.h
; File c:\x-ray\stcop\rgs\src\xrcdb\xrcdb_box.cpp
; File c:\x-ray\stcop\rgs\src\xrcore\_vector3d.h
; File c:\x-ray\stcop\rgs\src\xrcdb\xrcdb_box.cpp
;	COMDAT ?box_query@COLLIDER@CDB@@QEAAXPEBVMODEL@2@AEBU?$_vector3@M@@1@Z
_TEXT	SEGMENT
$T1 = 32
$T2 = 32
$T3 = 32
$T4 = 32
BC$5 = 48
BC$6 = 48
this$ = 208
m_def$ = 216
b_center$ = 224
b_dim$ = 232
?box_query@COLLIDER@CDB@@QEAAXPEBVMODEL@2@AEBU?$_vector3@M@@1@Z PROC ; CDB::COLLIDER::box_query, COMDAT

; 222  : {

$LN178:
	mov	QWORD PTR [rsp+8], rbx
	mov	QWORD PTR [rsp+16], rsi
	mov	QWORD PTR [rsp+24], rdi
	mov	QWORD PTR [rsp+32], r14
	push	rbp
	lea	rbp, QWORD PTR [rsp-87]
	sub	rsp, 192				; 000000c0H
; File c:\x-ray\stcop\rgs\src\xrcdb\xrcdb.h

; 86   : 			if (S_READY!=status)

	cmp	DWORD PTR [rdx+16], 0
; File c:\x-ray\stcop\rgs\src\xrcdb\xrcdb_box.cpp

; 222  : {

	mov	rsi, r9
	mov	r14, r8
	mov	rbx, rdx
	mov	rdi, rcx
; File c:\x-ray\stcop\rgs\src\xrcdb\xrcdb.h

; 86   : 			if (S_READY!=status)

	je	SHORT $LN9@box_query

; 87   : 			{
; 88   : 				Log						("! WARNING: syncronized CDB::query");
; 89   : 				xrCriticalSection*	C	= (xrCriticalSection*) &cs;
; 90   : 				C->Enter				();

	mov	rcx, rdx
	call	QWORD PTR __imp_?Enter@xrCriticalSection@@QEAAXXZ

; 91   : 				C->Leave				();

	mov	rcx, rbx
	call	QWORD PTR __imp_?Leave@xrCriticalSection@@QEAAXXZ
$LN9@box_query:
; File c:\x-ray\stcop\rgs\src\xrcdb\opc_point.h

; 46   : 		inline_					Point(float _x, float _y, float _z) : x(_x), y(_y), z(_z)	{}

	movss	xmm5, DWORD PTR [r14]
	movss	xmm2, DWORD PTR [rsi]
	movss	xmm3, DWORD PTR [rsi+4]
; File c:\x-ray\stcop\rgs\src\xrcdb\opc_optimizedtree.h

; 150  : 		IMPLEMENT_COLLISION_TREE(AABBNoLeafTree, AABBNoLeafNode)

	mov	rax, QWORD PTR [rbx+8]
	movaps	XMMWORD PTR [rsp+176], xmm6
	movaps	XMMWORD PTR [rsp+160], xmm7
; File c:\x-ray\stcop\rgs\src\xrcdb\xrcdb_box.cpp

; 97   : 		dest		= CL;

	mov	QWORD PTR BC$6[rbp-105], rdi

; 234  : 		{
; 235  : 			box_collider<true,true> BC;
; 236  : 			BC._init	(this,m_def->verts,m_def->tris,b_center,b_dim);
; 237  : 			BC._stab	(N);

	lea	rcx, QWORD PTR BC$6[rbp-105]
; File c:\x-ray\stcop\rgs\src\xrcdb\opc_optimizedtree.h

; 150  : 		IMPLEMENT_COLLISION_TREE(AABBNoLeafTree, AABBNoLeafNode)

	mov	r8, QWORD PTR [rax+8]
; File c:\program files (x86)\microsoft visual studio 12.0\vc\include\vector

; 1510 : 		this->_Mylast = this->_Myfirst;

	mov	rax, QWORD PTR [rdi+16]
; File c:\x-ray\stcop\rgs\src\xrcdb\opc_point.h

; 46   : 		inline_					Point(float _x, float _y, float _z) : x(_x), y(_y), z(_z)	{}

	movss	xmm6, DWORD PTR [r14+4]
	movss	xmm7, DWORD PTR [r14+8]
	movss	xmm4, DWORD PTR [rsi+8]
; File c:\x-ray\stcop\rgs\src\xrcdb\opc_optimizedtree.h

; 150  : 		IMPLEMENT_COLLISION_TREE(AABBNoLeafTree, AABBNoLeafNode)

	mov	rdx, QWORD PTR [r8+16]
; File c:\program files (x86)\microsoft visual studio 12.0\vc\include\vector

; 1510 : 		this->_Mylast = this->_Myfirst;

	mov	QWORD PTR [rdi+24], rax
; File c:\x-ray\stcop\rgs\src\xrcdb\xrcdb_box.cpp

; 231  : 	if (box_mode&OPT_FULL_TEST) 

	mov	eax, DWORD PTR [rdi+4]
; File c:\x-ray\stcop\rgs\src\xrcore\_vector3d.h

; 37   :     ICF SelfRef sub(const Self& a, const Self& v) { x = a.x - v.x; y = a.y - v.y; z = a.z - v.z; return *this; };

	movaps	xmm1, xmm6
; File c:\x-ray\stcop\rgs\src\xrcdb\xrcdb_box.cpp

; 100  : 		center		= Point(C.x,C.y,C.z);

	movss	xmm0, xmm5
; File c:\x-ray\stcop\rgs\src\xrcore\_vector3d.h

; 37   :     ICF SelfRef sub(const Self& a, const Self& v) { x = a.x - v.x; y = a.y - v.y; z = a.z - v.z; return *this; };

	subss	xmm1, xmm3
; File c:\x-ray\stcop\rgs\src\xrcdb\opc_point.h

; 46   : 		inline_					Point(float _x, float _y, float _z) : x(_x), y(_y), z(_z)	{}

	movss	DWORD PTR $T3[rbp-97], xmm7
; File c:\x-ray\stcop\rgs\src\xrcdb\xrcdb_box.cpp

; 100  : 		center		= Point(C.x,C.y,C.z);

	unpcklps xmm0, xmm6
	movsdx	QWORD PTR BC$6[rbp-57], xmm0

; 101  : 		extents		= Point(E.x,E.y,E.z);

	movss	xmm0, xmm2
; File c:\x-ray\stcop\rgs\src\xrcore\_vector3d.h

; 37   :     ICF SelfRef sub(const Self& a, const Self& v) { x = a.x - v.x; y = a.y - v.y; z = a.z - v.z; return *this; };

	movss	DWORD PTR BC$6[rbp-77], xmm1
; File c:\x-ray\stcop\rgs\src\xrcdb\xrcdb_box.cpp

; 101  : 		extents		= Point(E.x,E.y,E.z);

	unpcklps xmm0, xmm3
	movsdx	QWORD PTR BC$6[rbp-45], xmm0
; File c:\x-ray\stcop\rgs\src\xrcore\_vector3d.h

; 32   :     ICF SelfRef add(const Self& a, const Self& v) { x = a.x + v.x; y = a.y + v.y; z = a.z + v.z; return *this; };

	addss	xmm3, xmm6

; 37   :     ICF SelfRef sub(const Self& a, const Self& v) { x = a.x - v.x; y = a.y - v.y; z = a.z - v.z; return *this; };

	movaps	xmm0, xmm5
	subss	xmm0, xmm2

; 32   :     ICF SelfRef add(const Self& a, const Self& v) { x = a.x + v.x; y = a.y + v.y; z = a.z + v.z; return *this; };

	addss	xmm2, xmm5
	movss	DWORD PTR BC$6[rbp-65], xmm3

; 37   :     ICF SelfRef sub(const Self& a, const Self& v) { x = a.x - v.x; y = a.y - v.y; z = a.z - v.z; return *this; };

	movss	DWORD PTR BC$6[rbp-81], xmm0

; 32   :     ICF SelfRef add(const Self& a, const Self& v) { x = a.x + v.x; y = a.y + v.y; z = a.z + v.z; return *this; };

	movss	DWORD PTR BC$6[rbp-69], xmm2

; 37   :     ICF SelfRef sub(const Self& a, const Self& v) { x = a.x - v.x; y = a.y - v.y; z = a.z - v.z; return *this; };

	movaps	xmm0, xmm7
	subss	xmm0, xmm4
	movss	DWORD PTR BC$6[rbp-73], xmm0
; File c:\x-ray\stcop\rgs\src\xrcdb\xrcdb_box.cpp

; 231  : 	if (box_mode&OPT_FULL_TEST) 

	test	al, 8
	je	SHORT $LN6@box_query

; 232  : 	{
; 233  : 		if (box_mode&OPT_ONLYFIRST)

	test	al, 2

; 98   : 		verts		= V;

	mov	rax, QWORD PTR [rbx+40]
	mov	QWORD PTR BC$6[rbp-89], rax

; 99   : 		tris		= T;

	mov	rax, QWORD PTR [rbx+24]
	mov	QWORD PTR BC$6[rbp-97], rax

; 100  : 		center		= Point(C.x,C.y,C.z);

	mov	eax, DWORD PTR $T3[rbp-97]
; File c:\x-ray\stcop\rgs\src\xrcdb\opc_point.h

; 46   : 		inline_					Point(float _x, float _y, float _z) : x(_x), y(_y), z(_z)	{}

	movss	DWORD PTR $T4[rbp-97], xmm4
; File c:\x-ray\stcop\rgs\src\xrcdb\xrcdb_box.cpp

; 100  : 		center		= Point(C.x,C.y,C.z);

	mov	DWORD PTR BC$6[rbp-49], eax

; 101  : 		extents		= Point(E.x,E.y,E.z);

	mov	eax, DWORD PTR $T4[rbp-97]
; File c:\x-ray\stcop\rgs\src\xrcore\_vector3d.h

; 32   :     ICF SelfRef add(const Self& a, const Self& v) { x = a.x + v.x; y = a.y + v.y; z = a.z + v.z; return *this; };

	addss	xmm4, xmm7
	movss	DWORD PTR BC$6[rbp-61], xmm4
; File c:\x-ray\stcop\rgs\src\xrcdb\xrcdb_box.cpp

; 101  : 		extents		= Point(E.x,E.y,E.z);

	mov	DWORD PTR BC$6[rbp-37], eax

; 232  : 	{
; 233  : 		if (box_mode&OPT_ONLYFIRST)

	je	SHORT $LN5@box_query

; 234  : 		{
; 235  : 			box_collider<true,true> BC;
; 236  : 			BC._init	(this,m_def->verts,m_def->tris,b_center,b_dim);
; 237  : 			BC._stab	(N);

	call	?_stab@?$box_collider@$00$00@@QEAAXPEBVAABBNoLeafNode@Opcode@@@Z ; box_collider<1,1>::_stab

; 238  : 		} else {

	jmp	SHORT $LN1@box_query
$LN5@box_query:

; 239  : 			box_collider<true,false> BC;
; 240  : 			BC._init	(this,m_def->verts,m_def->tris,b_center,b_dim);
; 241  : 			BC._stab	(N);

	call	?_stab@?$box_collider@$00$0A@@@QEAAXPEBVAABBNoLeafNode@Opcode@@@Z ; box_collider<1,0>::_stab

; 242  : 		}
; 243  : 	} else {

	jmp	SHORT $LN1@box_query
$LN6@box_query:

; 244  : 		if (box_mode&OPT_ONLYFIRST)

	test	al, 2

; 98   : 		verts		= V;

	mov	rax, QWORD PTR [rbx+40]
	mov	QWORD PTR BC$5[rbp-89], rax

; 99   : 		tris		= T;

	mov	rax, QWORD PTR [rbx+24]
	mov	QWORD PTR BC$5[rbp-97], rax

; 100  : 		center		= Point(C.x,C.y,C.z);

	mov	eax, DWORD PTR $T2[rbp-97]
; File c:\x-ray\stcop\rgs\src\xrcdb\opc_point.h

; 46   : 		inline_					Point(float _x, float _y, float _z) : x(_x), y(_y), z(_z)	{}

	movss	DWORD PTR $T1[rbp-97], xmm4
; File c:\x-ray\stcop\rgs\src\xrcdb\xrcdb_box.cpp

; 100  : 		center		= Point(C.x,C.y,C.z);

	mov	DWORD PTR BC$5[rbp-49], eax

; 101  : 		extents		= Point(E.x,E.y,E.z);

	mov	eax, DWORD PTR $T1[rbp-97]
; File c:\x-ray\stcop\rgs\src\xrcore\_vector3d.h

; 32   :     ICF SelfRef add(const Self& a, const Self& v) { x = a.x + v.x; y = a.y + v.y; z = a.z + v.z; return *this; };

	addss	xmm4, xmm7
	movss	DWORD PTR BC$5[rbp-61], xmm4
; File c:\x-ray\stcop\rgs\src\xrcdb\xrcdb_box.cpp

; 101  : 		extents		= Point(E.x,E.y,E.z);

	mov	DWORD PTR BC$5[rbp-37], eax

; 244  : 		if (box_mode&OPT_ONLYFIRST)

	je	SHORT $LN2@box_query

; 245  : 		{
; 246  : 			box_collider<false,true> BC;
; 247  : 			BC._init	(this,m_def->verts,m_def->tris,b_center,b_dim);
; 248  : 			BC._stab	(N);

	call	?_stab@?$box_collider@$0A@$00@@QEAAXPEBVAABBNoLeafNode@Opcode@@@Z ; box_collider<0,1>::_stab

; 249  : 		} else {

	jmp	SHORT $LN1@box_query
$LN2@box_query:

; 250  : 			box_collider<false,false> BC;
; 251  : 			BC._init	(this,m_def->verts,m_def->tris,b_center,b_dim);
; 252  : 			BC._stab	(N);

	call	?_stab@?$box_collider@$0A@$0A@@@QEAAXPEBVAABBNoLeafNode@Opcode@@@Z ; box_collider<0,0>::_stab
$LN1@box_query:
	movaps	xmm7, XMMWORD PTR [rsp+160]
	movaps	xmm6, XMMWORD PTR [rsp+176]

; 253  : 		}
; 254  : 	}
; 255  : }

	lea	r11, QWORD PTR [rsp+192]
	mov	rbx, QWORD PTR [r11+16]
	mov	rsi, QWORD PTR [r11+24]
	mov	rdi, QWORD PTR [r11+32]
	mov	r14, QWORD PTR [r11+40]
	mov	rsp, r11
	pop	rbp
	ret	0
?box_query@COLLIDER@CDB@@QEAAXPEBVMODEL@2@AEBU?$_vector3@M@@1@Z ENDP ; CDB::COLLIDER::box_query
_TEXT	ENDS
; Function compile flags: /Ogtpy
;	COMDAT ??0?$box_collider@$00$00@@QEAA@XZ
_TEXT	SEGMENT
this$ = 8
??0?$box_collider@$00$00@@QEAA@XZ PROC			; box_collider<1,1>::box_collider<1,1>, COMDAT
	mov	rax, rcx
	ret	0
??0?$box_collider@$00$00@@QEAA@XZ ENDP			; box_collider<1,1>::box_collider<1,1>
_TEXT	ENDS
; Function compile flags: /Ogtpy
;	COMDAT ??1?$box_collider@$00$00@@QEAA@XZ
_TEXT	SEGMENT
this$dead$ = 8
??1?$box_collider@$00$00@@QEAA@XZ PROC			; box_collider<1,1>::~box_collider<1,1>, COMDAT
	ret	0
??1?$box_collider@$00$00@@QEAA@XZ ENDP			; box_collider<1,1>::~box_collider<1,1>
_TEXT	ENDS
; Function compile flags: /Ogtpy
;	COMDAT ??0?$box_collider@$00$0A@@@QEAA@XZ
_TEXT	SEGMENT
this$ = 8
??0?$box_collider@$00$0A@@@QEAA@XZ PROC			; box_collider<1,0>::box_collider<1,0>, COMDAT
	mov	rax, rcx
	ret	0
??0?$box_collider@$00$0A@@@QEAA@XZ ENDP			; box_collider<1,0>::box_collider<1,0>
_TEXT	ENDS
; Function compile flags: /Ogtpy
;	COMDAT ??1?$box_collider@$00$0A@@@QEAA@XZ
_TEXT	SEGMENT
this$dead$ = 8
??1?$box_collider@$00$0A@@@QEAA@XZ PROC			; box_collider<1,0>::~box_collider<1,0>, COMDAT
	ret	0
??1?$box_collider@$00$0A@@@QEAA@XZ ENDP			; box_collider<1,0>::~box_collider<1,0>
_TEXT	ENDS
; Function compile flags: /Ogtpy
;	COMDAT ??0?$box_collider@$0A@$00@@QEAA@XZ
_TEXT	SEGMENT
this$ = 8
??0?$box_collider@$0A@$00@@QEAA@XZ PROC			; box_collider<0,1>::box_collider<0,1>, COMDAT
	mov	rax, rcx
	ret	0
??0?$box_collider@$0A@$00@@QEAA@XZ ENDP			; box_collider<0,1>::box_collider<0,1>
_TEXT	ENDS
; Function compile flags: /Ogtpy
;	COMDAT ??1?$box_collider@$0A@$00@@QEAA@XZ
_TEXT	SEGMENT
this$dead$ = 8
??1?$box_collider@$0A@$00@@QEAA@XZ PROC			; box_collider<0,1>::~box_collider<0,1>, COMDAT
	ret	0
??1?$box_collider@$0A@$00@@QEAA@XZ ENDP			; box_collider<0,1>::~box_collider<0,1>
_TEXT	ENDS
; Function compile flags: /Ogtpy
;	COMDAT ??0?$box_collider@$0A@$0A@@@QEAA@XZ
_TEXT	SEGMENT
this$ = 8
??0?$box_collider@$0A@$0A@@@QEAA@XZ PROC		; box_collider<0,0>::box_collider<0,0>, COMDAT
	mov	rax, rcx
	ret	0
??0?$box_collider@$0A@$0A@@@QEAA@XZ ENDP		; box_collider<0,0>::box_collider<0,0>
_TEXT	ENDS
; Function compile flags: /Ogtpy
;	COMDAT ??1?$box_collider@$0A@$0A@@@QEAA@XZ
_TEXT	SEGMENT
this$dead$ = 8
??1?$box_collider@$0A@$0A@@@QEAA@XZ PROC		; box_collider<0,0>::~box_collider<0,0>, COMDAT
	ret	0
??1?$box_collider@$0A@$0A@@@QEAA@XZ ENDP		; box_collider<0,0>::~box_collider<0,0>
_TEXT	ENDS
; Function compile flags: /Ogtpy
; File c:\x-ray\stcop\rgs\src\xrcdb\xrcdb_box.cpp
; File c:\x-ray\stcop\rgs\src\xrcdb\opc_point.h
; File c:\x-ray\stcop\rgs\src\xrcdb\xrcdb_box.cpp
; File c:\x-ray\stcop\rgs\src\xrcdb\opc_point.h
; File c:\x-ray\stcop\rgs\src\xrcdb\xrcdb_box.cpp
; File c:\x-ray\stcop\rgs\src\xrcdb\opc_point.h
; File c:\x-ray\stcop\rgs\src\xrcdb\xrcdb_box.cpp
; File c:\x-ray\stcop\rgs\src\xrcore\_vector3d.h
; File c:\x-ray\stcop\rgs\src\xrcdb\xrcdb_box.cpp
;	COMDAT ?_init@?$box_collider@$00$00@@QEAAXPEAVCOLLIDER@CDB@@PEAU?$_vector3@M@@PEAVTRI@3@AEBU4@3@Z
_TEXT	SEGMENT
$T1 = 0
$T2 = 0
this$ = 32
CL$ = 40
V$ = 48
T$ = 56
C$ = 64
E$ = 72
?_init@?$box_collider@$00$00@@QEAAXPEAVCOLLIDER@CDB@@PEAU?$_vector3@M@@PEAVTRI@3@AEBU4@3@Z PROC ; box_collider<1,1>::_init, COMDAT

; 96   : 	{

$LN16:
	sub	rsp, 24

; 97   : 		dest		= CL;

	mov	QWORD PTR [rcx], rdx
; File c:\x-ray\stcop\rgs\src\xrcdb\opc_point.h

; 46   : 		inline_					Point(float _x, float _y, float _z) : x(_x), y(_y), z(_z)	{}

	mov	rdx, QWORD PTR C$[rsp]
; File c:\x-ray\stcop\rgs\src\xrcdb\xrcdb_box.cpp

; 98   : 		verts		= V;

	mov	QWORD PTR [rcx+16], r8

; 99   : 		tris		= T;

	mov	QWORD PTR [rcx+8], r9
	mov	r10, rcx
; File c:\x-ray\stcop\rgs\src\xrcdb\opc_point.h

; 46   : 		inline_					Point(float _x, float _y, float _z) : x(_x), y(_y), z(_z)	{}

	movss	xmm0, DWORD PTR [rdx+8]
	movss	xmm1, DWORD PTR [rdx+4]
	movss	DWORD PTR $T2[rsp+8], xmm0
; File c:\x-ray\stcop\rgs\src\xrcdb\xrcdb_box.cpp

; 100  : 		center		= Point(C.x,C.y,C.z);

	movss	xmm0, DWORD PTR [rdx]
	mov	eax, DWORD PTR $T2[rsp+8]
	unpcklps xmm0, xmm1
	movsdx	QWORD PTR [rcx+48], xmm0
	mov	DWORD PTR [rcx+56], eax
; File c:\x-ray\stcop\rgs\src\xrcdb\opc_point.h

; 46   : 		inline_					Point(float _x, float _y, float _z) : x(_x), y(_y), z(_z)	{}

	mov	rcx, QWORD PTR E$[rsp]
	movss	xmm0, DWORD PTR [rcx+8]
	movss	xmm1, DWORD PTR [rcx+4]
	movss	DWORD PTR $T1[rsp+8], xmm0
; File c:\x-ray\stcop\rgs\src\xrcdb\xrcdb_box.cpp

; 101  : 		extents		= Point(E.x,E.y,E.z);

	movss	xmm0, DWORD PTR [rcx]
	mov	eax, DWORD PTR $T1[rsp+8]
	unpcklps xmm0, xmm1
	movsdx	QWORD PTR [r10+60], xmm0
	mov	DWORD PTR [r10+68], eax
; File c:\x-ray\stcop\rgs\src\xrcore\_vector3d.h

; 37   :     ICF SelfRef sub(const Self& a, const Self& v) { x = a.x - v.x; y = a.y - v.y; z = a.z - v.z; return *this; };

	movss	xmm0, DWORD PTR [rdx]
	subss	xmm0, DWORD PTR [rcx]
	movss	DWORD PTR [r10+24], xmm0
	movss	xmm1, DWORD PTR [rdx+4]
	subss	xmm1, DWORD PTR [rcx+4]
	movss	DWORD PTR [r10+28], xmm1
	movss	xmm0, DWORD PTR [rdx+8]
	subss	xmm0, DWORD PTR [rcx+8]
	movss	DWORD PTR [r10+32], xmm0

; 32   :     ICF SelfRef add(const Self& a, const Self& v) { x = a.x + v.x; y = a.y + v.y; z = a.z + v.z; return *this; };

	movss	xmm1, DWORD PTR [rdx]
	addss	xmm1, DWORD PTR [rcx]
	movss	DWORD PTR [r10+36], xmm1
	movss	xmm0, DWORD PTR [rdx+4]
	addss	xmm0, DWORD PTR [rcx+4]
	movss	DWORD PTR [r10+40], xmm0
	movss	xmm1, DWORD PTR [rdx+8]
	addss	xmm1, DWORD PTR [rcx+8]
	movss	DWORD PTR [r10+44], xmm1
; File c:\x-ray\stcop\rgs\src\xrcdb\xrcdb_box.cpp

; 104  : 	}

	add	rsp, 24
	ret	0
?_init@?$box_collider@$00$00@@QEAAXPEAVCOLLIDER@CDB@@PEAU?$_vector3@M@@PEAVTRI@3@AEBU4@3@Z ENDP ; box_collider<1,1>::_init
_TEXT	ENDS
; Function compile flags: /Ogtpy
; File c:\x-ray\stcop\rgs\src\xrcdb\xrcdb_box.cpp
; File c:\x-ray\stcop\rgs\src\xrcdb\opc_optimizedtree.h
; File c:\x-ray\stcop\rgs\src\xrcdb\xrcdb_box.cpp
; File c:\x-ray\stcop\rgs\src\xrcdb\opc_optimizedtree.h
; File c:\x-ray\stcop\rgs\src\xrcdb\xrcdb_box.cpp
; File c:\x-ray\stcop\rgs\src\xrcdb\opc_optimizedtree.h
; File c:\x-ray\stcop\rgs\src\xrcdb\xrcdb_box.cpp
; File c:\x-ray\stcop\rgs\src\xrcdb\xrcdb.h
; File c:\program files (x86)\microsoft visual studio 12.0\vc\include\vector
; File c:\x-ray\stcop\rgs\src\xrcdb\xrcdb_box.cpp
; File c:\x-ray\stcop\rgs\src\xrcdb\opc_optimizedtree.h
; File c:\x-ray\stcop\rgs\src\xrcdb\xrcdb_box.cpp
; File c:\x-ray\stcop\rgs\src\xrcdb\opc_optimizedtree.h
; File c:\x-ray\stcop\rgs\src\xrcdb\xrcdb_box.cpp
; File c:\x-ray\stcop\rgs\src\xrcdb\opc_optimizedtree.h
; File c:\x-ray\stcop\rgs\src\xrcdb\xrcdb_box.cpp
;	COMDAT ?_stab@?$box_collider@$00$00@@QEAAXPEBVAABBNoLeafNode@Opcode@@@Z
_TEXT	SEGMENT
this$ = 64
node$ = 72
?_stab@?$box_collider@$00$00@@QEAAXPEBVAABBNoLeafNode@Opcode@@@Z PROC ; box_collider<1,1>::_stab, COMDAT

; 204  : 	{

$LN51:
	mov	QWORD PTR [rsp+8], rbx
	mov	QWORD PTR [rsp+16], rsi
	push	rdi
	sub	rsp, 48					; 00000030H
	mov	rbx, rdx
	mov	rdi, rcx
	mov	rsi, 5270498306774157605		; 4924924924924925H
	movaps	XMMWORD PTR [rsp+32], xmm6
	npad	12
$LL35@stab:

; 107  : 		if( b_max.x < C.x-E.x )	return false;

	movss	xmm3, DWORD PTR [rbx]
	movss	xmm4, DWORD PTR [rbx+12]
	movaps	xmm0, xmm3
	subss	xmm0, xmm4
	comiss	xmm0, DWORD PTR [rdi+36]
	ja	$LN1@stab

; 108  : 		if( b_max.y < C.y-E.y )	return false;

	movss	xmm2, DWORD PTR [rbx+4]
	movss	xmm5, DWORD PTR [rbx+16]
	movaps	xmm0, xmm2
	subss	xmm0, xmm5
	comiss	xmm0, DWORD PTR [rdi+40]
	ja	$LN1@stab

; 109  : 		if( b_max.z < C.z-E.z )	return false;

	movss	xmm1, DWORD PTR [rbx+8]
	movss	xmm6, DWORD PTR [rbx+20]
	movaps	xmm0, xmm1
	subss	xmm0, xmm6
	comiss	xmm0, DWORD PTR [rdi+44]
	ja	$LN1@stab

; 110  : 		if( b_min.x > C.x+E.x )	return false;

	movss	xmm0, DWORD PTR [rdi+24]
	addss	xmm3, xmm4
	comiss	xmm0, xmm3
	ja	SHORT $LN1@stab

; 111  : 		if( b_min.y > C.y+E.y )	return false;

	movss	xmm0, DWORD PTR [rdi+28]
	addss	xmm2, xmm5
	comiss	xmm0, xmm2
	ja	SHORT $LN1@stab

; 112  : 		if( b_min.z > C.z+E.z )	return false;

	movss	xmm0, DWORD PTR [rdi+32]
	addss	xmm1, xmm6
	comiss	xmm0, xmm1
	ja	SHORT $LN1@stab
; File c:\x-ray\stcop\rgs\src\xrcdb\opc_optimizedtree.h

; 104  : 		IMPLEMENT_NOLEAF_NODE(AABBNoLeafNode, CollisionAABB)

	mov	rdx, QWORD PTR [rbx+24]
; File c:\x-ray\stcop\rgs\src\xrcdb\xrcdb_box.cpp

; 209  : 		if (node->HasLeaf())	_prim	(node->GetPrimitive());

	mov	rcx, rdi
; File c:\x-ray\stcop\rgs\src\xrcdb\opc_optimizedtree.h

; 104  : 		IMPLEMENT_NOLEAF_NODE(AABBNoLeafNode, CollisionAABB)

	test	dl, 1
; File c:\x-ray\stcop\rgs\src\xrcdb\xrcdb_box.cpp

; 209  : 		if (node->HasLeaf())	_prim	(node->GetPrimitive());

	je	SHORT $LN5@stab
; File c:\x-ray\stcop\rgs\src\xrcdb\opc_optimizedtree.h

; 104  : 		IMPLEMENT_NOLEAF_NODE(AABBNoLeafNode, CollisionAABB)

	shr	rdx, 1
; File c:\x-ray\stcop\rgs\src\xrcdb\xrcdb_box.cpp

; 209  : 		if (node->HasLeaf())	_prim	(node->GetPrimitive());

	call	?_prim@?$box_collider@$00$00@@QEAAXK@Z	; box_collider<1,1>::_prim

; 210  : 		else					_stab	(node->GetPos());

	jmp	SHORT $LN4@stab
$LN5@stab:
	call	?_stab@?$box_collider@$00$00@@QEAAXPEBVAABBNoLeafNode@Opcode@@@Z ; box_collider<1,1>::_stab
$LN4@stab:
; File c:\x-ray\stcop\rgs\src\xrcdb\xrcdb.h

; 154  : 		ICF int			r_count			()	{	return rd.size();			};

	mov	rax, QWORD PTR [rdi]
; File c:\program files (x86)\microsoft visual studio 12.0\vc\include\vector

; 1148 : 		return (this->_Mylast - this->_Myfirst);

	mov	rcx, QWORD PTR [rax+24]
	sub	rcx, QWORD PTR [rax+16]
	mov	rax, rsi
	imul	rcx
	sar	rdx, 4
	mov	rax, rdx
	shr	rax, 63					; 0000003fH
	add	rdx, rax
; File c:\x-ray\stcop\rgs\src\xrcdb\xrcdb_box.cpp

; 213  : 		if (bFirst && dest->r_count())												return;

	test	edx, edx
	jne	SHORT $LN1@stab
; File c:\x-ray\stcop\rgs\src\xrcdb\opc_optimizedtree.h

; 104  : 		IMPLEMENT_NOLEAF_NODE(AABBNoLeafNode, CollisionAABB)

	test	BYTE PTR [rbx+32], 1
; File c:\x-ray\stcop\rgs\src\xrcdb\xrcdb_box.cpp

; 216  : 		if (node->HasLeaf2())	_prim	(node->GetPrimitive2());

	jne	SHORT $LN40@stab

; 217  : 		else					_stab	(node->GetNeg());

	mov	rbx, QWORD PTR [rbx+32]
	jmp	$LL35@stab
$LN40@stab:
; File c:\x-ray\stcop\rgs\src\xrcdb\opc_optimizedtree.h

; 104  : 		IMPLEMENT_NOLEAF_NODE(AABBNoLeafNode, CollisionAABB)

	mov	rdx, QWORD PTR [rbx+32]
; File c:\x-ray\stcop\rgs\src\xrcdb\xrcdb_box.cpp

; 216  : 		if (node->HasLeaf2())	_prim	(node->GetPrimitive2());

	mov	rcx, rdi
; File c:\x-ray\stcop\rgs\src\xrcdb\opc_optimizedtree.h

; 104  : 		IMPLEMENT_NOLEAF_NODE(AABBNoLeafNode, CollisionAABB)

	shr	rdx, 1
; File c:\x-ray\stcop\rgs\src\xrcdb\xrcdb_box.cpp

; 216  : 		if (node->HasLeaf2())	_prim	(node->GetPrimitive2());

	call	?_prim@?$box_collider@$00$00@@QEAAXK@Z	; box_collider<1,1>::_prim
$LN1@stab:

; 218  : 	}

	movaps	xmm6, XMMWORD PTR [rsp+32]
	mov	rbx, QWORD PTR [rsp+64]
	mov	rsi, QWORD PTR [rsp+72]
	add	rsp, 48					; 00000030H
	pop	rdi
	ret	0
?_stab@?$box_collider@$00$00@@QEAAXPEBVAABBNoLeafNode@Opcode@@@Z ENDP ; box_collider<1,1>::_stab
_TEXT	ENDS
; Function compile flags: /Ogtpy
; File c:\x-ray\stcop\rgs\src\xrcdb\xrcdb_box.cpp
; File c:\x-ray\stcop\rgs\src\xrcdb\opc_point.h
; File c:\x-ray\stcop\rgs\src\xrcdb\xrcdb_box.cpp
; File c:\x-ray\stcop\rgs\src\xrcdb\opc_point.h
; File c:\x-ray\stcop\rgs\src\xrcdb\xrcdb_box.cpp
; File c:\x-ray\stcop\rgs\src\xrcdb\opc_point.h
; File c:\x-ray\stcop\rgs\src\xrcdb\xrcdb_box.cpp
; File c:\x-ray\stcop\rgs\src\xrcore\_vector3d.h
; File c:\x-ray\stcop\rgs\src\xrcdb\xrcdb_box.cpp
;	COMDAT ?_init@?$box_collider@$00$0A@@@QEAAXPEAVCOLLIDER@CDB@@PEAU?$_vector3@M@@PEAVTRI@3@AEBU4@3@Z
_TEXT	SEGMENT
$T1 = 0
$T2 = 0
this$ = 32
CL$ = 40
V$ = 48
T$ = 56
C$ = 64
E$ = 72
?_init@?$box_collider@$00$0A@@@QEAAXPEAVCOLLIDER@CDB@@PEAU?$_vector3@M@@PEAVTRI@3@AEBU4@3@Z PROC ; box_collider<1,0>::_init, COMDAT

; 96   : 	{

$LN16:
	sub	rsp, 24

; 97   : 		dest		= CL;

	mov	QWORD PTR [rcx], rdx
; File c:\x-ray\stcop\rgs\src\xrcdb\opc_point.h

; 46   : 		inline_					Point(float _x, float _y, float _z) : x(_x), y(_y), z(_z)	{}

	mov	rdx, QWORD PTR C$[rsp]
; File c:\x-ray\stcop\rgs\src\xrcdb\xrcdb_box.cpp

; 98   : 		verts		= V;

	mov	QWORD PTR [rcx+16], r8

; 99   : 		tris		= T;

	mov	QWORD PTR [rcx+8], r9
	mov	r10, rcx
; File c:\x-ray\stcop\rgs\src\xrcdb\opc_point.h

; 46   : 		inline_					Point(float _x, float _y, float _z) : x(_x), y(_y), z(_z)	{}

	movss	xmm0, DWORD PTR [rdx+8]
	movss	xmm1, DWORD PTR [rdx+4]
	movss	DWORD PTR $T2[rsp+8], xmm0
; File c:\x-ray\stcop\rgs\src\xrcdb\xrcdb_box.cpp

; 100  : 		center		= Point(C.x,C.y,C.z);

	movss	xmm0, DWORD PTR [rdx]
	mov	eax, DWORD PTR $T2[rsp+8]
	unpcklps xmm0, xmm1
	movsdx	QWORD PTR [rcx+48], xmm0
	mov	DWORD PTR [rcx+56], eax
; File c:\x-ray\stcop\rgs\src\xrcdb\opc_point.h

; 46   : 		inline_					Point(float _x, float _y, float _z) : x(_x), y(_y), z(_z)	{}

	mov	rcx, QWORD PTR E$[rsp]
	movss	xmm0, DWORD PTR [rcx+8]
	movss	xmm1, DWORD PTR [rcx+4]
	movss	DWORD PTR $T1[rsp+8], xmm0
; File c:\x-ray\stcop\rgs\src\xrcdb\xrcdb_box.cpp

; 101  : 		extents		= Point(E.x,E.y,E.z);

	movss	xmm0, DWORD PTR [rcx]
	mov	eax, DWORD PTR $T1[rsp+8]
	unpcklps xmm0, xmm1
	movsdx	QWORD PTR [r10+60], xmm0
	mov	DWORD PTR [r10+68], eax
; File c:\x-ray\stcop\rgs\src\xrcore\_vector3d.h

; 37   :     ICF SelfRef sub(const Self& a, const Self& v) { x = a.x - v.x; y = a.y - v.y; z = a.z - v.z; return *this; };

	movss	xmm0, DWORD PTR [rdx]
	subss	xmm0, DWORD PTR [rcx]
	movss	DWORD PTR [r10+24], xmm0
	movss	xmm1, DWORD PTR [rdx+4]
	subss	xmm1, DWORD PTR [rcx+4]
	movss	DWORD PTR [r10+28], xmm1
	movss	xmm0, DWORD PTR [rdx+8]
	subss	xmm0, DWORD PTR [rcx+8]
	movss	DWORD PTR [r10+32], xmm0

; 32   :     ICF SelfRef add(const Self& a, const Self& v) { x = a.x + v.x; y = a.y + v.y; z = a.z + v.z; return *this; };

	movss	xmm1, DWORD PTR [rdx]
	addss	xmm1, DWORD PTR [rcx]
	movss	DWORD PTR [r10+36], xmm1
	movss	xmm0, DWORD PTR [rdx+4]
	addss	xmm0, DWORD PTR [rcx+4]
	movss	DWORD PTR [r10+40], xmm0
	movss	xmm1, DWORD PTR [rdx+8]
	addss	xmm1, DWORD PTR [rcx+8]
	movss	DWORD PTR [r10+44], xmm1
; File c:\x-ray\stcop\rgs\src\xrcdb\xrcdb_box.cpp

; 104  : 	}

	add	rsp, 24
	ret	0
?_init@?$box_collider@$00$0A@@@QEAAXPEAVCOLLIDER@CDB@@PEAU?$_vector3@M@@PEAVTRI@3@AEBU4@3@Z ENDP ; box_collider<1,0>::_init
_TEXT	ENDS
; Function compile flags: /Ogtpy
; File c:\x-ray\stcop\rgs\src\xrcdb\xrcdb_box.cpp
; File c:\x-ray\stcop\rgs\src\xrcdb\opc_optimizedtree.h
; File c:\x-ray\stcop\rgs\src\xrcdb\xrcdb_box.cpp
; File c:\x-ray\stcop\rgs\src\xrcdb\opc_optimizedtree.h
; File c:\x-ray\stcop\rgs\src\xrcdb\xrcdb_box.cpp
; File c:\x-ray\stcop\rgs\src\xrcdb\opc_optimizedtree.h
; File c:\x-ray\stcop\rgs\src\xrcdb\xrcdb_box.cpp
; File c:\x-ray\stcop\rgs\src\xrcdb\opc_optimizedtree.h
; File c:\x-ray\stcop\rgs\src\xrcdb\xrcdb_box.cpp
; File c:\x-ray\stcop\rgs\src\xrcdb\opc_optimizedtree.h
; File c:\x-ray\stcop\rgs\src\xrcdb\xrcdb_box.cpp
; File c:\x-ray\stcop\rgs\src\xrcdb\opc_optimizedtree.h
; File c:\x-ray\stcop\rgs\src\xrcdb\xrcdb_box.cpp
;	COMDAT ?_stab@?$box_collider@$00$0A@@@QEAAXPEBVAABBNoLeafNode@Opcode@@@Z
_TEXT	SEGMENT
this$ = 64
node$ = 72
?_stab@?$box_collider@$00$0A@@@QEAAXPEBVAABBNoLeafNode@Opcode@@@Z PROC ; box_collider<1,0>::_stab, COMDAT

; 204  : 	{

$LN44:
	mov	QWORD PTR [rsp+8], rbx
	push	rdi
	sub	rsp, 48					; 00000030H
	mov	rbx, rdx
	mov	rdi, rcx
	movaps	XMMWORD PTR [rsp+32], xmm6
	npad	11
$LL29@stab:

; 107  : 		if( b_max.x < C.x-E.x )	return false;

	movss	xmm3, DWORD PTR [rbx]
	movss	xmm4, DWORD PTR [rbx+12]
	movaps	xmm0, xmm3
	subss	xmm0, xmm4
	comiss	xmm0, DWORD PTR [rdi+36]
	ja	$LN1@stab

; 108  : 		if( b_max.y < C.y-E.y )	return false;

	movss	xmm2, DWORD PTR [rbx+4]
	movss	xmm5, DWORD PTR [rbx+16]
	movaps	xmm0, xmm2
	subss	xmm0, xmm5
	comiss	xmm0, DWORD PTR [rdi+40]
	ja	SHORT $LN1@stab

; 109  : 		if( b_max.z < C.z-E.z )	return false;

	movss	xmm1, DWORD PTR [rbx+8]
	movss	xmm6, DWORD PTR [rbx+20]
	movaps	xmm0, xmm1
	subss	xmm0, xmm6
	comiss	xmm0, DWORD PTR [rdi+44]
	ja	SHORT $LN1@stab

; 110  : 		if( b_min.x > C.x+E.x )	return false;

	movss	xmm0, DWORD PTR [rdi+24]
	addss	xmm3, xmm4
	comiss	xmm0, xmm3
	ja	SHORT $LN1@stab

; 111  : 		if( b_min.y > C.y+E.y )	return false;

	movss	xmm0, DWORD PTR [rdi+28]
	addss	xmm2, xmm5
	comiss	xmm0, xmm2
	ja	SHORT $LN1@stab

; 112  : 		if( b_min.z > C.z+E.z )	return false;

	movss	xmm0, DWORD PTR [rdi+32]
	addss	xmm1, xmm6
	comiss	xmm0, xmm1
	ja	SHORT $LN1@stab
; File c:\x-ray\stcop\rgs\src\xrcdb\opc_optimizedtree.h

; 104  : 		IMPLEMENT_NOLEAF_NODE(AABBNoLeafNode, CollisionAABB)

	mov	rdx, QWORD PTR [rbx+24]
; File c:\x-ray\stcop\rgs\src\xrcdb\xrcdb_box.cpp

; 209  : 		if (node->HasLeaf())	_prim	(node->GetPrimitive());

	mov	rcx, rdi
; File c:\x-ray\stcop\rgs\src\xrcdb\opc_optimizedtree.h

; 104  : 		IMPLEMENT_NOLEAF_NODE(AABBNoLeafNode, CollisionAABB)

	test	dl, 1
; File c:\x-ray\stcop\rgs\src\xrcdb\xrcdb_box.cpp

; 209  : 		if (node->HasLeaf())	_prim	(node->GetPrimitive());

	je	SHORT $LN5@stab
; File c:\x-ray\stcop\rgs\src\xrcdb\opc_optimizedtree.h

; 104  : 		IMPLEMENT_NOLEAF_NODE(AABBNoLeafNode, CollisionAABB)

	shr	rdx, 1
; File c:\x-ray\stcop\rgs\src\xrcdb\xrcdb_box.cpp

; 209  : 		if (node->HasLeaf())	_prim	(node->GetPrimitive());

	call	?_prim@?$box_collider@$00$0A@@@QEAAXK@Z	; box_collider<1,0>::_prim

; 210  : 		else					_stab	(node->GetPos());

	jmp	SHORT $LN4@stab
$LN5@stab:
	call	?_stab@?$box_collider@$00$0A@@@QEAAXPEBVAABBNoLeafNode@Opcode@@@Z ; box_collider<1,0>::_stab
$LN4@stab:
; File c:\x-ray\stcop\rgs\src\xrcdb\opc_optimizedtree.h

; 104  : 		IMPLEMENT_NOLEAF_NODE(AABBNoLeafNode, CollisionAABB)

	test	BYTE PTR [rbx+32], 1
; File c:\x-ray\stcop\rgs\src\xrcdb\xrcdb_box.cpp

; 216  : 		if (node->HasLeaf2())	_prim	(node->GetPrimitive2());

	jne	SHORT $LN33@stab

; 217  : 		else					_stab	(node->GetNeg());

	mov	rbx, QWORD PTR [rbx+32]
	jmp	$LL29@stab
$LN33@stab:
; File c:\x-ray\stcop\rgs\src\xrcdb\opc_optimizedtree.h

; 104  : 		IMPLEMENT_NOLEAF_NODE(AABBNoLeafNode, CollisionAABB)

	mov	rdx, QWORD PTR [rbx+32]
; File c:\x-ray\stcop\rgs\src\xrcdb\xrcdb_box.cpp

; 216  : 		if (node->HasLeaf2())	_prim	(node->GetPrimitive2());

	mov	rcx, rdi
; File c:\x-ray\stcop\rgs\src\xrcdb\opc_optimizedtree.h

; 104  : 		IMPLEMENT_NOLEAF_NODE(AABBNoLeafNode, CollisionAABB)

	shr	rdx, 1
; File c:\x-ray\stcop\rgs\src\xrcdb\xrcdb_box.cpp

; 216  : 		if (node->HasLeaf2())	_prim	(node->GetPrimitive2());

	call	?_prim@?$box_collider@$00$0A@@@QEAAXK@Z	; box_collider<1,0>::_prim
$LN1@stab:
	movaps	xmm6, XMMWORD PTR [rsp+32]

; 218  : 	}

	mov	rbx, QWORD PTR [rsp+64]
	add	rsp, 48					; 00000030H
	pop	rdi
	ret	0
?_stab@?$box_collider@$00$0A@@@QEAAXPEBVAABBNoLeafNode@Opcode@@@Z ENDP ; box_collider<1,0>::_stab
_TEXT	ENDS
; Function compile flags: /Ogtpy
; File c:\x-ray\stcop\rgs\src\xrcdb\xrcdb_box.cpp
; File c:\x-ray\stcop\rgs\src\xrcdb\opc_point.h
; File c:\x-ray\stcop\rgs\src\xrcdb\xrcdb_box.cpp
; File c:\x-ray\stcop\rgs\src\xrcdb\opc_point.h
; File c:\x-ray\stcop\rgs\src\xrcdb\xrcdb_box.cpp
; File c:\x-ray\stcop\rgs\src\xrcdb\opc_point.h
; File c:\x-ray\stcop\rgs\src\xrcdb\xrcdb_box.cpp
; File c:\x-ray\stcop\rgs\src\xrcore\_vector3d.h
; File c:\x-ray\stcop\rgs\src\xrcdb\xrcdb_box.cpp
;	COMDAT ?_init@?$box_collider@$0A@$00@@QEAAXPEAVCOLLIDER@CDB@@PEAU?$_vector3@M@@PEAVTRI@3@AEBU4@3@Z
_TEXT	SEGMENT
$T1 = 0
$T2 = 0
this$ = 32
CL$ = 40
V$ = 48
T$ = 56
C$ = 64
E$ = 72
?_init@?$box_collider@$0A@$00@@QEAAXPEAVCOLLIDER@CDB@@PEAU?$_vector3@M@@PEAVTRI@3@AEBU4@3@Z PROC ; box_collider<0,1>::_init, COMDAT

; 96   : 	{

$LN16:
	sub	rsp, 24

; 97   : 		dest		= CL;

	mov	QWORD PTR [rcx], rdx
; File c:\x-ray\stcop\rgs\src\xrcdb\opc_point.h

; 46   : 		inline_					Point(float _x, float _y, float _z) : x(_x), y(_y), z(_z)	{}

	mov	rdx, QWORD PTR C$[rsp]
; File c:\x-ray\stcop\rgs\src\xrcdb\xrcdb_box.cpp

; 98   : 		verts		= V;

	mov	QWORD PTR [rcx+16], r8

; 99   : 		tris		= T;

	mov	QWORD PTR [rcx+8], r9
	mov	r10, rcx
; File c:\x-ray\stcop\rgs\src\xrcdb\opc_point.h

; 46   : 		inline_					Point(float _x, float _y, float _z) : x(_x), y(_y), z(_z)	{}

	movss	xmm0, DWORD PTR [rdx+8]
	movss	xmm1, DWORD PTR [rdx+4]
	movss	DWORD PTR $T2[rsp+8], xmm0
; File c:\x-ray\stcop\rgs\src\xrcdb\xrcdb_box.cpp

; 100  : 		center		= Point(C.x,C.y,C.z);

	movss	xmm0, DWORD PTR [rdx]
	mov	eax, DWORD PTR $T2[rsp+8]
	unpcklps xmm0, xmm1
	movsdx	QWORD PTR [rcx+48], xmm0
	mov	DWORD PTR [rcx+56], eax
; File c:\x-ray\stcop\rgs\src\xrcdb\opc_point.h

; 46   : 		inline_					Point(float _x, float _y, float _z) : x(_x), y(_y), z(_z)	{}

	mov	rcx, QWORD PTR E$[rsp]
	movss	xmm0, DWORD PTR [rcx+8]
	movss	xmm1, DWORD PTR [rcx+4]
	movss	DWORD PTR $T1[rsp+8], xmm0
; File c:\x-ray\stcop\rgs\src\xrcdb\xrcdb_box.cpp

; 101  : 		extents		= Point(E.x,E.y,E.z);

	movss	xmm0, DWORD PTR [rcx]
	mov	eax, DWORD PTR $T1[rsp+8]
	unpcklps xmm0, xmm1
	movsdx	QWORD PTR [r10+60], xmm0
	mov	DWORD PTR [r10+68], eax
; File c:\x-ray\stcop\rgs\src\xrcore\_vector3d.h

; 37   :     ICF SelfRef sub(const Self& a, const Self& v) { x = a.x - v.x; y = a.y - v.y; z = a.z - v.z; return *this; };

	movss	xmm0, DWORD PTR [rdx]
	subss	xmm0, DWORD PTR [rcx]
	movss	DWORD PTR [r10+24], xmm0
	movss	xmm1, DWORD PTR [rdx+4]
	subss	xmm1, DWORD PTR [rcx+4]
	movss	DWORD PTR [r10+28], xmm1
	movss	xmm0, DWORD PTR [rdx+8]
	subss	xmm0, DWORD PTR [rcx+8]
	movss	DWORD PTR [r10+32], xmm0

; 32   :     ICF SelfRef add(const Self& a, const Self& v) { x = a.x + v.x; y = a.y + v.y; z = a.z + v.z; return *this; };

	movss	xmm1, DWORD PTR [rdx]
	addss	xmm1, DWORD PTR [rcx]
	movss	DWORD PTR [r10+36], xmm1
	movss	xmm0, DWORD PTR [rdx+4]
	addss	xmm0, DWORD PTR [rcx+4]
	movss	DWORD PTR [r10+40], xmm0
	movss	xmm1, DWORD PTR [rdx+8]
	addss	xmm1, DWORD PTR [rcx+8]
	movss	DWORD PTR [r10+44], xmm1
; File c:\x-ray\stcop\rgs\src\xrcdb\xrcdb_box.cpp

; 104  : 	}

	add	rsp, 24
	ret	0
?_init@?$box_collider@$0A@$00@@QEAAXPEAVCOLLIDER@CDB@@PEAU?$_vector3@M@@PEAVTRI@3@AEBU4@3@Z ENDP ; box_collider<0,1>::_init
_TEXT	ENDS
; Function compile flags: /Ogtpy
; File c:\x-ray\stcop\rgs\src\xrcdb\xrcdb_box.cpp
; File c:\x-ray\stcop\rgs\src\xrcdb\opc_optimizedtree.h
; File c:\x-ray\stcop\rgs\src\xrcdb\xrcdb_box.cpp
; File c:\x-ray\stcop\rgs\src\xrcdb\opc_optimizedtree.h
; File c:\x-ray\stcop\rgs\src\xrcdb\xrcdb_box.cpp
; File c:\x-ray\stcop\rgs\src\xrcdb\opc_optimizedtree.h
; File c:\x-ray\stcop\rgs\src\xrcdb\xrcdb_box.cpp
; File c:\x-ray\stcop\rgs\src\xrcdb\xrcdb.h
; File c:\program files (x86)\microsoft visual studio 12.0\vc\include\vector
; File c:\x-ray\stcop\rgs\src\xrcdb\xrcdb_box.cpp
; File c:\x-ray\stcop\rgs\src\xrcdb\opc_optimizedtree.h
; File c:\x-ray\stcop\rgs\src\xrcdb\xrcdb_box.cpp
; File c:\x-ray\stcop\rgs\src\xrcdb\opc_optimizedtree.h
; File c:\x-ray\stcop\rgs\src\xrcdb\xrcdb_box.cpp
; File c:\x-ray\stcop\rgs\src\xrcdb\opc_optimizedtree.h
; File c:\x-ray\stcop\rgs\src\xrcdb\xrcdb_box.cpp
;	COMDAT ?_stab@?$box_collider@$0A@$00@@QEAAXPEBVAABBNoLeafNode@Opcode@@@Z
_TEXT	SEGMENT
this$ = 64
node$ = 72
?_stab@?$box_collider@$0A@$00@@QEAAXPEBVAABBNoLeafNode@Opcode@@@Z PROC ; box_collider<0,1>::_stab, COMDAT

; 204  : 	{

$LN51:
	mov	QWORD PTR [rsp+8], rbx
	mov	QWORD PTR [rsp+16], rsi
	push	rdi
	sub	rsp, 48					; 00000030H
	mov	rbx, rdx
	mov	rdi, rcx
	mov	rsi, 5270498306774157605		; 4924924924924925H
	movaps	XMMWORD PTR [rsp+32], xmm6
	npad	12
$LL35@stab:

; 107  : 		if( b_max.x < C.x-E.x )	return false;

	movss	xmm3, DWORD PTR [rbx]
	movss	xmm4, DWORD PTR [rbx+12]
	movaps	xmm0, xmm3
	subss	xmm0, xmm4
	comiss	xmm0, DWORD PTR [rdi+36]
	ja	$LN1@stab

; 108  : 		if( b_max.y < C.y-E.y )	return false;

	movss	xmm2, DWORD PTR [rbx+4]
	movss	xmm5, DWORD PTR [rbx+16]
	movaps	xmm0, xmm2
	subss	xmm0, xmm5
	comiss	xmm0, DWORD PTR [rdi+40]
	ja	$LN1@stab

; 109  : 		if( b_max.z < C.z-E.z )	return false;

	movss	xmm1, DWORD PTR [rbx+8]
	movss	xmm6, DWORD PTR [rbx+20]
	movaps	xmm0, xmm1
	subss	xmm0, xmm6
	comiss	xmm0, DWORD PTR [rdi+44]
	ja	$LN1@stab

; 110  : 		if( b_min.x > C.x+E.x )	return false;

	movss	xmm0, DWORD PTR [rdi+24]
	addss	xmm3, xmm4
	comiss	xmm0, xmm3
	ja	SHORT $LN1@stab

; 111  : 		if( b_min.y > C.y+E.y )	return false;

	movss	xmm0, DWORD PTR [rdi+28]
	addss	xmm2, xmm5
	comiss	xmm0, xmm2
	ja	SHORT $LN1@stab

; 112  : 		if( b_min.z > C.z+E.z )	return false;

	movss	xmm0, DWORD PTR [rdi+32]
	addss	xmm1, xmm6
	comiss	xmm0, xmm1
	ja	SHORT $LN1@stab
; File c:\x-ray\stcop\rgs\src\xrcdb\opc_optimizedtree.h

; 104  : 		IMPLEMENT_NOLEAF_NODE(AABBNoLeafNode, CollisionAABB)

	mov	rdx, QWORD PTR [rbx+24]
; File c:\x-ray\stcop\rgs\src\xrcdb\xrcdb_box.cpp

; 209  : 		if (node->HasLeaf())	_prim	(node->GetPrimitive());

	mov	rcx, rdi
; File c:\x-ray\stcop\rgs\src\xrcdb\opc_optimizedtree.h

; 104  : 		IMPLEMENT_NOLEAF_NODE(AABBNoLeafNode, CollisionAABB)

	test	dl, 1
; File c:\x-ray\stcop\rgs\src\xrcdb\xrcdb_box.cpp

; 209  : 		if (node->HasLeaf())	_prim	(node->GetPrimitive());

	je	SHORT $LN5@stab
; File c:\x-ray\stcop\rgs\src\xrcdb\opc_optimizedtree.h

; 104  : 		IMPLEMENT_NOLEAF_NODE(AABBNoLeafNode, CollisionAABB)

	shr	rdx, 1
; File c:\x-ray\stcop\rgs\src\xrcdb\xrcdb_box.cpp

; 209  : 		if (node->HasLeaf())	_prim	(node->GetPrimitive());

	call	?_prim@?$box_collider@$0A@$00@@QEAAXK@Z	; box_collider<0,1>::_prim

; 210  : 		else					_stab	(node->GetPos());

	jmp	SHORT $LN4@stab
$LN5@stab:
	call	?_stab@?$box_collider@$0A@$00@@QEAAXPEBVAABBNoLeafNode@Opcode@@@Z ; box_collider<0,1>::_stab
$LN4@stab:
; File c:\x-ray\stcop\rgs\src\xrcdb\xrcdb.h

; 154  : 		ICF int			r_count			()	{	return rd.size();			};

	mov	rax, QWORD PTR [rdi]
; File c:\program files (x86)\microsoft visual studio 12.0\vc\include\vector

; 1148 : 		return (this->_Mylast - this->_Myfirst);

	mov	rcx, QWORD PTR [rax+24]
	sub	rcx, QWORD PTR [rax+16]
	mov	rax, rsi
	imul	rcx
	sar	rdx, 4
	mov	rax, rdx
	shr	rax, 63					; 0000003fH
	add	rdx, rax
; File c:\x-ray\stcop\rgs\src\xrcdb\xrcdb_box.cpp

; 213  : 		if (bFirst && dest->r_count())												return;

	test	edx, edx
	jne	SHORT $LN1@stab
; File c:\x-ray\stcop\rgs\src\xrcdb\opc_optimizedtree.h

; 104  : 		IMPLEMENT_NOLEAF_NODE(AABBNoLeafNode, CollisionAABB)

	test	BYTE PTR [rbx+32], 1
; File c:\x-ray\stcop\rgs\src\xrcdb\xrcdb_box.cpp

; 216  : 		if (node->HasLeaf2())	_prim	(node->GetPrimitive2());

	jne	SHORT $LN40@stab

; 217  : 		else					_stab	(node->GetNeg());

	mov	rbx, QWORD PTR [rbx+32]
	jmp	$LL35@stab
$LN40@stab:
; File c:\x-ray\stcop\rgs\src\xrcdb\opc_optimizedtree.h

; 104  : 		IMPLEMENT_NOLEAF_NODE(AABBNoLeafNode, CollisionAABB)

	mov	rdx, QWORD PTR [rbx+32]
; File c:\x-ray\stcop\rgs\src\xrcdb\xrcdb_box.cpp

; 216  : 		if (node->HasLeaf2())	_prim	(node->GetPrimitive2());

	mov	rcx, rdi
; File c:\x-ray\stcop\rgs\src\xrcdb\opc_optimizedtree.h

; 104  : 		IMPLEMENT_NOLEAF_NODE(AABBNoLeafNode, CollisionAABB)

	shr	rdx, 1
; File c:\x-ray\stcop\rgs\src\xrcdb\xrcdb_box.cpp

; 216  : 		if (node->HasLeaf2())	_prim	(node->GetPrimitive2());

	call	?_prim@?$box_collider@$0A@$00@@QEAAXK@Z	; box_collider<0,1>::_prim
$LN1@stab:

; 218  : 	}

	movaps	xmm6, XMMWORD PTR [rsp+32]
	mov	rbx, QWORD PTR [rsp+64]
	mov	rsi, QWORD PTR [rsp+72]
	add	rsp, 48					; 00000030H
	pop	rdi
	ret	0
?_stab@?$box_collider@$0A@$00@@QEAAXPEBVAABBNoLeafNode@Opcode@@@Z ENDP ; box_collider<0,1>::_stab
_TEXT	ENDS
; Function compile flags: /Ogtpy
; File c:\x-ray\stcop\rgs\src\xrcdb\xrcdb_box.cpp
; File c:\x-ray\stcop\rgs\src\xrcdb\opc_point.h
; File c:\x-ray\stcop\rgs\src\xrcdb\xrcdb_box.cpp
; File c:\x-ray\stcop\rgs\src\xrcdb\opc_point.h
; File c:\x-ray\stcop\rgs\src\xrcdb\xrcdb_box.cpp
; File c:\x-ray\stcop\rgs\src\xrcdb\opc_point.h
; File c:\x-ray\stcop\rgs\src\xrcdb\xrcdb_box.cpp
; File c:\x-ray\stcop\rgs\src\xrcore\_vector3d.h
; File c:\x-ray\stcop\rgs\src\xrcdb\xrcdb_box.cpp
;	COMDAT ?_init@?$box_collider@$0A@$0A@@@QEAAXPEAVCOLLIDER@CDB@@PEAU?$_vector3@M@@PEAVTRI@3@AEBU4@3@Z
_TEXT	SEGMENT
$T1 = 0
$T2 = 0
this$ = 32
CL$ = 40
V$ = 48
T$ = 56
C$ = 64
E$ = 72
?_init@?$box_collider@$0A@$0A@@@QEAAXPEAVCOLLIDER@CDB@@PEAU?$_vector3@M@@PEAVTRI@3@AEBU4@3@Z PROC ; box_collider<0,0>::_init, COMDAT

; 96   : 	{

$LN16:
	sub	rsp, 24

; 97   : 		dest		= CL;

	mov	QWORD PTR [rcx], rdx
; File c:\x-ray\stcop\rgs\src\xrcdb\opc_point.h

; 46   : 		inline_					Point(float _x, float _y, float _z) : x(_x), y(_y), z(_z)	{}

	mov	rdx, QWORD PTR C$[rsp]
; File c:\x-ray\stcop\rgs\src\xrcdb\xrcdb_box.cpp

; 98   : 		verts		= V;

	mov	QWORD PTR [rcx+16], r8

; 99   : 		tris		= T;

	mov	QWORD PTR [rcx+8], r9
	mov	r10, rcx
; File c:\x-ray\stcop\rgs\src\xrcdb\opc_point.h

; 46   : 		inline_					Point(float _x, float _y, float _z) : x(_x), y(_y), z(_z)	{}

	movss	xmm0, DWORD PTR [rdx+8]
	movss	xmm1, DWORD PTR [rdx+4]
	movss	DWORD PTR $T2[rsp+8], xmm0
; File c:\x-ray\stcop\rgs\src\xrcdb\xrcdb_box.cpp

; 100  : 		center		= Point(C.x,C.y,C.z);

	movss	xmm0, DWORD PTR [rdx]
	mov	eax, DWORD PTR $T2[rsp+8]
	unpcklps xmm0, xmm1
	movsdx	QWORD PTR [rcx+48], xmm0
	mov	DWORD PTR [rcx+56], eax
; File c:\x-ray\stcop\rgs\src\xrcdb\opc_point.h

; 46   : 		inline_					Point(float _x, float _y, float _z) : x(_x), y(_y), z(_z)	{}

	mov	rcx, QWORD PTR E$[rsp]
	movss	xmm0, DWORD PTR [rcx+8]
	movss	xmm1, DWORD PTR [rcx+4]
	movss	DWORD PTR $T1[rsp+8], xmm0
; File c:\x-ray\stcop\rgs\src\xrcdb\xrcdb_box.cpp

; 101  : 		extents		= Point(E.x,E.y,E.z);

	movss	xmm0, DWORD PTR [rcx]
	mov	eax, DWORD PTR $T1[rsp+8]
	unpcklps xmm0, xmm1
	movsdx	QWORD PTR [r10+60], xmm0
	mov	DWORD PTR [r10+68], eax
; File c:\x-ray\stcop\rgs\src\xrcore\_vector3d.h

; 37   :     ICF SelfRef sub(const Self& a, const Self& v) { x = a.x - v.x; y = a.y - v.y; z = a.z - v.z; return *this; };

	movss	xmm0, DWORD PTR [rdx]
	subss	xmm0, DWORD PTR [rcx]
	movss	DWORD PTR [r10+24], xmm0
	movss	xmm1, DWORD PTR [rdx+4]
	subss	xmm1, DWORD PTR [rcx+4]
	movss	DWORD PTR [r10+28], xmm1
	movss	xmm0, DWORD PTR [rdx+8]
	subss	xmm0, DWORD PTR [rcx+8]
	movss	DWORD PTR [r10+32], xmm0

; 32   :     ICF SelfRef add(const Self& a, const Self& v) { x = a.x + v.x; y = a.y + v.y; z = a.z + v.z; return *this; };

	movss	xmm1, DWORD PTR [rdx]
	addss	xmm1, DWORD PTR [rcx]
	movss	DWORD PTR [r10+36], xmm1
	movss	xmm0, DWORD PTR [rdx+4]
	addss	xmm0, DWORD PTR [rcx+4]
	movss	DWORD PTR [r10+40], xmm0
	movss	xmm1, DWORD PTR [rdx+8]
	addss	xmm1, DWORD PTR [rcx+8]
	movss	DWORD PTR [r10+44], xmm1
; File c:\x-ray\stcop\rgs\src\xrcdb\xrcdb_box.cpp

; 104  : 	}

	add	rsp, 24
	ret	0
?_init@?$box_collider@$0A@$0A@@@QEAAXPEAVCOLLIDER@CDB@@PEAU?$_vector3@M@@PEAVTRI@3@AEBU4@3@Z ENDP ; box_collider<0,0>::_init
_TEXT	ENDS
; Function compile flags: /Ogtpy
; File c:\x-ray\stcop\rgs\src\xrcdb\xrcdb_box.cpp
; File c:\x-ray\stcop\rgs\src\xrcdb\opc_optimizedtree.h
; File c:\x-ray\stcop\rgs\src\xrcdb\xrcdb_box.cpp
; File c:\x-ray\stcop\rgs\src\xrcdb\opc_optimizedtree.h
; File c:\x-ray\stcop\rgs\src\xrcdb\xrcdb_box.cpp
; File c:\x-ray\stcop\rgs\src\xrcdb\opc_optimizedtree.h
; File c:\x-ray\stcop\rgs\src\xrcdb\xrcdb_box.cpp
; File c:\x-ray\stcop\rgs\src\xrcdb\opc_optimizedtree.h
; File c:\x-ray\stcop\rgs\src\xrcdb\xrcdb_box.cpp
; File c:\x-ray\stcop\rgs\src\xrcdb\opc_optimizedtree.h
; File c:\x-ray\stcop\rgs\src\xrcdb\xrcdb_box.cpp
; File c:\x-ray\stcop\rgs\src\xrcdb\opc_optimizedtree.h
; File c:\x-ray\stcop\rgs\src\xrcdb\xrcdb_box.cpp
;	COMDAT ?_stab@?$box_collider@$0A@$0A@@@QEAAXPEBVAABBNoLeafNode@Opcode@@@Z
_TEXT	SEGMENT
this$ = 64
node$ = 72
?_stab@?$box_collider@$0A@$0A@@@QEAAXPEBVAABBNoLeafNode@Opcode@@@Z PROC ; box_collider<0,0>::_stab, COMDAT

; 204  : 	{

$LN44:
	mov	QWORD PTR [rsp+8], rbx
	push	rdi
	sub	rsp, 48					; 00000030H
	mov	rbx, rdx
	mov	rdi, rcx
	movaps	XMMWORD PTR [rsp+32], xmm6
	npad	11
$LL29@stab:

; 107  : 		if( b_max.x < C.x-E.x )	return false;

	movss	xmm3, DWORD PTR [rbx]
	movss	xmm4, DWORD PTR [rbx+12]
	movaps	xmm0, xmm3
	subss	xmm0, xmm4
	comiss	xmm0, DWORD PTR [rdi+36]
	ja	$LN1@stab

; 108  : 		if( b_max.y < C.y-E.y )	return false;

	movss	xmm2, DWORD PTR [rbx+4]
	movss	xmm5, DWORD PTR [rbx+16]
	movaps	xmm0, xmm2
	subss	xmm0, xmm5
	comiss	xmm0, DWORD PTR [rdi+40]
	ja	SHORT $LN1@stab

; 109  : 		if( b_max.z < C.z-E.z )	return false;

	movss	xmm1, DWORD PTR [rbx+8]
	movss	xmm6, DWORD PTR [rbx+20]
	movaps	xmm0, xmm1
	subss	xmm0, xmm6
	comiss	xmm0, DWORD PTR [rdi+44]
	ja	SHORT $LN1@stab

; 110  : 		if( b_min.x > C.x+E.x )	return false;

	movss	xmm0, DWORD PTR [rdi+24]
	addss	xmm3, xmm4
	comiss	xmm0, xmm3
	ja	SHORT $LN1@stab

; 111  : 		if( b_min.y > C.y+E.y )	return false;

	movss	xmm0, DWORD PTR [rdi+28]
	addss	xmm2, xmm5
	comiss	xmm0, xmm2
	ja	SHORT $LN1@stab

; 112  : 		if( b_min.z > C.z+E.z )	return false;

	movss	xmm0, DWORD PTR [rdi+32]
	addss	xmm1, xmm6
	comiss	xmm0, xmm1
	ja	SHORT $LN1@stab
; File c:\x-ray\stcop\rgs\src\xrcdb\opc_optimizedtree.h

; 104  : 		IMPLEMENT_NOLEAF_NODE(AABBNoLeafNode, CollisionAABB)

	mov	rdx, QWORD PTR [rbx+24]
; File c:\x-ray\stcop\rgs\src\xrcdb\xrcdb_box.cpp

; 209  : 		if (node->HasLeaf())	_prim	(node->GetPrimitive());

	mov	rcx, rdi
; File c:\x-ray\stcop\rgs\src\xrcdb\opc_optimizedtree.h

; 104  : 		IMPLEMENT_NOLEAF_NODE(AABBNoLeafNode, CollisionAABB)

	test	dl, 1
; File c:\x-ray\stcop\rgs\src\xrcdb\xrcdb_box.cpp

; 209  : 		if (node->HasLeaf())	_prim	(node->GetPrimitive());

	je	SHORT $LN5@stab
; File c:\x-ray\stcop\rgs\src\xrcdb\opc_optimizedtree.h

; 104  : 		IMPLEMENT_NOLEAF_NODE(AABBNoLeafNode, CollisionAABB)

	shr	rdx, 1
; File c:\x-ray\stcop\rgs\src\xrcdb\xrcdb_box.cpp

; 209  : 		if (node->HasLeaf())	_prim	(node->GetPrimitive());

	call	?_prim@?$box_collider@$0A@$0A@@@QEAAXK@Z ; box_collider<0,0>::_prim

; 210  : 		else					_stab	(node->GetPos());

	jmp	SHORT $LN4@stab
$LN5@stab:
	call	?_stab@?$box_collider@$0A@$0A@@@QEAAXPEBVAABBNoLeafNode@Opcode@@@Z ; box_collider<0,0>::_stab
$LN4@stab:
; File c:\x-ray\stcop\rgs\src\xrcdb\opc_optimizedtree.h

; 104  : 		IMPLEMENT_NOLEAF_NODE(AABBNoLeafNode, CollisionAABB)

	test	BYTE PTR [rbx+32], 1
; File c:\x-ray\stcop\rgs\src\xrcdb\xrcdb_box.cpp

; 216  : 		if (node->HasLeaf2())	_prim	(node->GetPrimitive2());

	jne	SHORT $LN33@stab

; 217  : 		else					_stab	(node->GetNeg());

	mov	rbx, QWORD PTR [rbx+32]
	jmp	$LL29@stab
$LN33@stab:
; File c:\x-ray\stcop\rgs\src\xrcdb\opc_optimizedtree.h

; 104  : 		IMPLEMENT_NOLEAF_NODE(AABBNoLeafNode, CollisionAABB)

	mov	rdx, QWORD PTR [rbx+32]
; File c:\x-ray\stcop\rgs\src\xrcdb\xrcdb_box.cpp

; 216  : 		if (node->HasLeaf2())	_prim	(node->GetPrimitive2());

	mov	rcx, rdi
; File c:\x-ray\stcop\rgs\src\xrcdb\opc_optimizedtree.h

; 104  : 		IMPLEMENT_NOLEAF_NODE(AABBNoLeafNode, CollisionAABB)

	shr	rdx, 1
; File c:\x-ray\stcop\rgs\src\xrcdb\xrcdb_box.cpp

; 216  : 		if (node->HasLeaf2())	_prim	(node->GetPrimitive2());

	call	?_prim@?$box_collider@$0A@$0A@@@QEAAXK@Z ; box_collider<0,0>::_prim
$LN1@stab:
	movaps	xmm6, XMMWORD PTR [rsp+32]

; 218  : 	}

	mov	rbx, QWORD PTR [rsp+64]
	add	rsp, 48					; 00000030H
	pop	rdi
	ret	0
?_stab@?$box_collider@$0A@$0A@@@QEAAXPEBVAABBNoLeafNode@Opcode@@@Z ENDP ; box_collider<0,0>::_stab
_TEXT	ENDS
; Function compile flags: /Ogtpy
; File c:\x-ray\stcop\rgs\src\xrcdb\xrcdb_box.cpp
;	COMDAT ?_box@?$box_collider@$00$00@@QEAA_NAEBU?$_vector3@M@@0@Z
_TEXT	SEGMENT
this$ = 8
C$ = 16
E$ = 24
?_box@?$box_collider@$00$00@@QEAA_NAEBU?$_vector3@M@@0@Z PROC ; box_collider<1,1>::_box, COMDAT

; 107  : 		if( b_max.x < C.x-E.x )	return false;

	movss	xmm3, DWORD PTR [r8]
	movss	xmm0, DWORD PTR [rdx]
	subss	xmm0, xmm3
	comiss	xmm0, DWORD PTR [rcx+36]
	jbe	SHORT $LN6@box
$LN9@box:
	xor	al, al

; 113  : 		return true;
; 114  : 	};

	ret	0
$LN6@box:

; 108  : 		if( b_max.y < C.y-E.y )	return false;

	movss	xmm4, DWORD PTR [rdx+4]
	movss	xmm1, DWORD PTR [r8+4]
	movaps	xmm0, xmm4
	subss	xmm0, xmm1
	comiss	xmm0, DWORD PTR [rcx+40]
	ja	SHORT $LN9@box

; 109  : 		if( b_max.z < C.z-E.z )	return false;

	movss	xmm5, DWORD PTR [rdx+8]
	movss	xmm2, DWORD PTR [r8+8]
	movaps	xmm0, xmm5
	subss	xmm0, xmm2
	comiss	xmm0, DWORD PTR [rcx+44]
	ja	SHORT $LN9@box

; 110  : 		if( b_min.x > C.x+E.x )	return false;

	addss	xmm3, DWORD PTR [rdx]
	movss	xmm0, DWORD PTR [rcx+24]
	comiss	xmm0, xmm3
	ja	SHORT $LN9@box

; 111  : 		if( b_min.y > C.y+E.y )	return false;

	movss	xmm0, DWORD PTR [rcx+28]
	addss	xmm1, xmm4
	comiss	xmm0, xmm1
	ja	SHORT $LN9@box

; 112  : 		if( b_min.z > C.z+E.z )	return false;

	movss	xmm0, DWORD PTR [rcx+32]
	addss	xmm2, xmm5
	comiss	xmm0, xmm2
	setbe	al

; 113  : 		return true;
; 114  : 	};

	ret	0
?_box@?$box_collider@$00$00@@QEAA_NAEBU?$_vector3@M@@0@Z ENDP ; box_collider<1,1>::_box
_TEXT	ENDS
; Function compile flags: /Ogtpy
; File c:\x-ray\stcop\rgs\src\xrcdb\xrcdb_box.cpp
; File c:\x-ray\stcop\rgs\src\xrcdb\opc_point.h
; File c:\x-ray\stcop\rgs\src\xrcdb\xrcdb_box.cpp
; File c:\x-ray\stcop\rgs\src\xrcdb\opc_point.h
; File c:\x-ray\stcop\rgs\src\xrcdb\xrcdb_box.cpp
; File c:\x-ray\stcop\rgs\src\xrcdb\opc_point.h
; File c:\x-ray\stcop\rgs\src\xrcdb\xrcdb_box.cpp
; File c:\program files (x86)\microsoft visual studio 12.0\vc\include\math.h
; File c:\x-ray\stcop\rgs\src\xrcdb\xrcdb_box.cpp
; File c:\program files (x86)\microsoft visual studio 12.0\vc\include\math.h
; File c:\x-ray\stcop\rgs\src\xrcdb\xrcdb_box.cpp
; File c:\program files (x86)\microsoft visual studio 12.0\vc\include\math.h
; File c:\x-ray\stcop\rgs\src\xrcdb\xrcdb_box.cpp
; File c:\program files (x86)\microsoft visual studio 12.0\vc\include\math.h
; File c:\x-ray\stcop\rgs\src\xrcdb\xrcdb_box.cpp
; File c:\program files (x86)\microsoft visual studio 12.0\vc\include\math.h
; File c:\x-ray\stcop\rgs\src\xrcdb\xrcdb_box.cpp
; File c:\program files (x86)\microsoft visual studio 12.0\vc\include\math.h
; File c:\x-ray\stcop\rgs\src\xrcdb\xrcdb_box.cpp
; File c:\program files (x86)\microsoft visual studio 12.0\vc\include\math.h
; File c:\x-ray\stcop\rgs\src\xrcdb\xrcdb_box.cpp
; File c:\program files (x86)\microsoft visual studio 12.0\vc\include\math.h
; File c:\x-ray\stcop\rgs\src\xrcdb\xrcdb_box.cpp
; File c:\program files (x86)\microsoft visual studio 12.0\vc\include\math.h
; File c:\x-ray\stcop\rgs\src\xrcdb\xrcdb_box.cpp
; File c:\program files (x86)\microsoft visual studio 12.0\vc\include\math.h
; File c:\x-ray\stcop\rgs\src\xrcdb\xrcdb_box.cpp
; File c:\x-ray\stcop\rgs\src\xrcdb\opc_point.h
; File c:\x-ray\stcop\rgs\src\xrcdb\xrcdb_box.cpp
; File c:\program files (x86)\microsoft visual studio 12.0\vc\include\math.h
; File c:\x-ray\stcop\rgs\src\xrcdb\xrcdb_box.cpp
; File c:\program files (x86)\microsoft visual studio 12.0\vc\include\math.h
; File c:\x-ray\stcop\rgs\src\xrcdb\xrcdb_box.cpp
; File c:\program files (x86)\microsoft visual studio 12.0\vc\include\math.h
; File c:\x-ray\stcop\rgs\src\xrcdb\xrcdb_box.cpp
; File c:\x-ray\stcop\rgs\src\xrcdb\xrcdb.cpp
; File c:\x-ray\stcop\rgs\src\xrcdb\xrcdb_box.cpp
; File c:\x-ray\stcop\rgs\src\xrcdb\xrcdb.cpp
; File c:\program files (x86)\microsoft visual studio 12.0\vc\include\vector
; File c:\x-ray\stcop\rgs\src\xrcdb\xrcdb_box.cpp
;	COMDAT ?_prim@?$box_collider@$00$00@@QEAAXK@Z
_TEXT	SEGMENT
e1$2$ = 32
e1$3$ = 36
v1$1$ = 40
normal$3$ = 44
e0$3$ = 48
d$1$ = 52
e0$2$ = 56
v2$1$ = 60
v1$3$ = 64
$T1 = 68
v0$1$ = 368
this$ = 368
prim$ = 376
normal$2$ = 384
fey1$1$ = 384
fez0$1$ = 384
normal$1$ = 392
fey0$1$ = 392
?_prim@?$box_collider@$00$00@@QEAAXK@Z PROC		; box_collider<1,1>::_prim, COMDAT

; 190  : 	{

$LN361:
	mov	rax, rsp
	mov	DWORD PTR [rax+16], edx
	push	rbp
	push	rsi
	push	rdi
	push	r12
	push	r13
	push	r14
	push	r15
	sub	rsp, 304				; 00000130H

; 191  : 		TRI&	T	= tris[prim];
; 192  : 		Fvector& v0	= verts[ T.verts[0] ];	mLeafVerts[0].x = v0.x;	mLeafVerts[0].y = v0.y;	mLeafVerts[0].z = v0.z;

	mov	rbp, QWORD PTR [rcx+16]
	movaps	XMMWORD PTR [rax-104], xmm7
	movaps	XMMWORD PTR [rax-184], xmm12
	mov	edi, edx
	shl	rdi, 4
	add	rdi, QWORD PTR [rcx+8]
	movaps	XMMWORD PTR [rax-216], xmm14
	mov	eax, DWORD PTR [rdi]
	lea	rsi, QWORD PTR [rax+rax*2]
	movss	xmm12, DWORD PTR [rbp+rsi*4]
	movss	DWORD PTR [rcx+72], xmm12
	mov	eax, DWORD PTR [rbp+rsi*4+4]
	mov	DWORD PTR [rcx+76], eax
	mov	eax, DWORD PTR [rbp+rsi*4+8]
	mov	DWORD PTR [rcx+80], eax

; 193  : 		Fvector& v1	= verts[ T.verts[1] ];	mLeafVerts[1].x = v1.x;	mLeafVerts[1].y = v1.y;	mLeafVerts[1].z = v1.z;

	mov	eax, DWORD PTR [rdi+4]
	mov	r15, QWORD PTR [rcx+16]
	lea	r14, QWORD PTR [rax+rax*2]
	movss	xmm4, DWORD PTR [r15+r14*4]
	movss	DWORD PTR [rcx+84], xmm4
	mov	eax, DWORD PTR [r15+r14*4+4]
	mov	DWORD PTR [rcx+88], eax
	mov	eax, DWORD PTR [r15+r14*4+8]
	mov	DWORD PTR [rcx+92], eax

; 194  : 		Fvector& v2	= verts[ T.verts[2] ];	mLeafVerts[2].x = v2.x;	mLeafVerts[2].y = v2.y;	mLeafVerts[2].z = v2.z;

	mov	r13, QWORD PTR [rcx+16]
	mov	eax, DWORD PTR [rdi+8]
	lea	r12, QWORD PTR [rax+rax*2]
	movss	xmm14, DWORD PTR [r13+r12*4]
	movss	DWORD PTR [rcx+96], xmm14
	mov	eax, DWORD PTR [r13+r12*4+4]
	mov	DWORD PTR [rcx+100], eax
	movss	xmm7, DWORD PTR [r13+r12*4+8]
	movss	DWORD PTR [rcx+104], xmm7

; 29   : 
; 30   : 	return false;
; 31   : }
; 32   : 
; 33   : //! TO BE DOCUMENTED
; 34   : #define AXISTEST_X01(a, b, fa, fb)							\
; 35   : 	min = a*v0.y - b*v0.z;									\
; 36   : 	max = a*v2.y - b*v2.z;									\
; 37   : 	if(min>max) {const float tmp=max; max=min; min=tmp;	}	\
; 38   : 	rad = fa * extents.y + fb * extents.z;					\
; 39   : 	if(min>rad || max<-rad) return false;
; 40   : 
; 41   : //! TO BE DOCUMENTED
; 42   : #define AXISTEST_X2(a, b, fa, fb)							\
; 43   : 	min = a*v0.y - b*v0.z;									\
; 44   : 	max = a*v1.y - b*v1.z;									\
; 45   : 	if(min>max) {const float tmp=max; max=min; min=tmp;	}	\
; 46   : 	rad = fa * extents.y + fb * extents.z;					\
; 47   : 	if(min>rad || max<-rad) return false;
; 48   : 
; 49   : //! TO BE DOCUMENTED
; 50   : #define AXISTEST_Y02(a, b, fa, fb)							\
; 51   : 	min = b*v0.z - a*v0.x;									\
; 52   : 	max = b*v2.z - a*v2.x;									\
; 53   : 	if(min>max) {const float tmp=max; max=min; min=tmp;	}	\
; 54   : 	rad = fa * extents.x + fb * extents.z;					\
; 55   : 	if(min>rad || max<-rad) return false;
; 56   : 
; 57   : //! TO BE DOCUMENTED
; 58   : #define AXISTEST_Y1(a, b, fa, fb)							\
; 59   : 	min = b*v0.z - a*v0.x;									\
; 60   : 	max = b*v1.z - a*v1.x;									\
; 61   : 	if(min>max) {const float tmp=max; max=min; min=tmp;	}	\
; 62   : 	rad = fa * extents.x + fb * extents.z;					\
; 63   : 	if(min>rad || max<-rad) return false;
; 64   : 
; 65   : //! TO BE DOCUMENTED
; 66   : #define AXISTEST_Z12(a, b, fa, fb)							\
; 67   : 	min = a*v1.x - b*v1.y;									\
; 68   : 	max = a*v2.x - b*v2.y;									\
; 69   : 	if(min>max) {const float tmp=max; max=min; min=tmp;	}	\
; 70   : 	rad = fa * extents.x + fb * extents.y;					\
; 71   : 	if(min>rad || max<-rad) return false;
; 72   : 
; 73   : //! TO BE DOCUMENTED
; 74   : #define AXISTEST_Z0(a, b, fa, fb)							\
; 75   : 	min = a*v0.x - b*v0.y;									\
; 76   : 	max = a*v1.x - b*v1.y;									\
; 77   : 	if(min>max) {const float tmp=max; max=min; min=tmp;	}	\
; 78   : 	rad = fa * extents.x + fb * extents.y;					\
; 79   : 	if(min>rad || max<-rad) return false;
; 80   : 
; 81   : 
; 82   : template <bool bClass3, bool bFirst>
; 83   : class box_collider
; 84   : {
; 85   : public:
; 86   : 	COLLIDER*		dest;
; 87   : 	TRI*			tris;
; 88   : 	Fvector*		verts;
; 89   : 	
; 90   : 	Fvector			b_min, b_max;
; 91   : 	Point			center, extents;
; 92   : 
; 93   : 	Point			mLeafVerts	[3];
; 94   : 	
; 95   : 	IC void			_init		(COLLIDER* CL, Fvector* V, TRI* T, const Fvector& C, const Fvector& E)
; 96   : 	{
; 97   : 		dest		= CL;
; 98   : 		verts		= V;
; 99   : 		tris		= T;
; 100  : 		center		= Point(C.x,C.y,C.z);
; 101  : 		extents		= Point(E.x,E.y,E.z);
; 102  : 		b_min.sub	(C,E);
; 103  : 		b_max.add	(C,E);
; 104  : 	}
; 105  : 	ICF	bool		_box		(const Fvector& C, const Fvector& E)
; 106  : 	{
; 107  : 		if( b_max.x < C.x-E.x )	return false;
; 108  : 		if( b_max.y < C.y-E.y )	return false;
; 109  : 		if( b_max.z < C.z-E.z )	return false;
; 110  : 		if( b_min.x > C.x+E.x )	return false;
; 111  : 		if( b_min.y > C.y+E.y )	return false;
; 112  : 		if( b_min.z > C.z+E.z )	return false;
; 113  : 		return true;
; 114  : 	};
; 115  : 	ICF	bool		_tri		()
; 116  : 	{
; 117  : 		// move everything so that the boxcenter is in (0,0,0) 
; 118  : 		Point v0, v1, v2;
; 119  : 		v0.x = mLeafVerts[0].x - center.x;

	movss	xmm0, DWORD PTR [rcx+48]
	subss	xmm12, xmm0

; 120  : 		v1.x = mLeafVerts[1].x - center.x;

	subss	xmm4, xmm0

; 121  : 		v2.x = mLeafVerts[2].x - center.x;

	subss	xmm14, xmm0

; 122  : 		
; 123  : 		// First, test overlap in the {x,y,z}-directions
; 124  : 		float min,max;
; 125  : 		// Find min, max of the triangle in x-direction, and test for overlap in X
; 126  : 		FINDMINMAX(v0.x, v1.x, v2.x, min, max);

	movaps	xmm1, xmm12
	movaps	xmm0, xmm12
	comiss	xmm12, xmm4
	movss	DWORD PTR v0$1$[rsp], xmm12
	movss	DWORD PTR v1$1$[rsp], xmm4
	movss	DWORD PTR v2$1$[rsp], xmm14
	jbe	SHORT $LN50@prim
	movaps	xmm0, xmm4
$LN50@prim:
	comiss	xmm4, xmm12
	jbe	SHORT $LN49@prim
	movaps	xmm1, xmm4
$LN49@prim:
	comiss	xmm0, xmm14
	jbe	SHORT $LN48@prim
	movaps	xmm0, xmm14
$LN48@prim:
	comiss	xmm14, xmm1
	jbe	SHORT $LN47@prim
	movaps	xmm1, xmm14
$LN47@prim:

; 127  : 		if(min>extents.x || max<-extents.x) return false;

	movss	xmm2, DWORD PTR [rcx+60]
	comiss	xmm0, xmm2
	ja	$LN2@prim
	movss	xmm3, DWORD PTR __xmm@80000000800000008000000080000000
	movaps	xmm0, xmm2
	xorps	xmm0, xmm3
	comiss	xmm0, xmm1
	ja	$LN2@prim

; 128  : 		
; 129  : 		// Same for Y
; 130  : 		v0.y = mLeafVerts[0].y - center.y;

	movss	xmm0, DWORD PTR [rcx+52]
	movaps	XMMWORD PTR [rsp+224], xmm9

; 132  : 		v2.y = mLeafVerts[2].y - center.y;

	movss	xmm9, DWORD PTR [rcx+100]
	movaps	XMMWORD PTR [rsp+208], xmm10
	movaps	XMMWORD PTR [rsp+192], xmm11

; 128  : 		
; 129  : 		// Same for Y
; 130  : 		v0.y = mLeafVerts[0].y - center.y;

	movss	xmm11, DWORD PTR [rcx+76]

; 131  : 		v1.y = mLeafVerts[1].y - center.y;

	movss	xmm10, DWORD PTR [rcx+88]

; 132  : 		v2.y = mLeafVerts[2].y - center.y;

	subss	xmm9, xmm0
	subss	xmm11, xmm0
	subss	xmm10, xmm0

; 133  : 		
; 134  : 		FINDMINMAX(v0.y, v1.y, v2.y, min, max);

	movaps	xmm1, xmm11
	movaps	xmm0, xmm11
	comiss	xmm11, xmm10
	jbe	SHORT $LN44@prim
	movaps	xmm0, xmm10
$LN44@prim:
	comiss	xmm10, xmm11
	jbe	SHORT $LN43@prim
	movaps	xmm1, xmm10
$LN43@prim:
	comiss	xmm0, xmm9
	jbe	SHORT $LN42@prim
	movaps	xmm0, xmm9
$LN42@prim:
	comiss	xmm9, xmm1
	jbe	SHORT $LN41@prim
	movaps	xmm1, xmm9
$LN41@prim:

; 135  : 		if(min>extents.y || max<-extents.y) return false;

	movss	xmm2, DWORD PTR [rcx+64]
	comiss	xmm0, xmm2
	ja	$LN355@prim
	movaps	xmm0, xmm2
	xorps	xmm0, xmm3
	comiss	xmm0, xmm1
	ja	$LN355@prim

; 136  : 		
; 137  : 		// Same for Z
; 138  : 		v0.z = mLeafVerts[0].z - center.z;

	movss	xmm0, DWORD PTR [rcx+56]

; 139  : 		v1.z = mLeafVerts[1].z - center.z;

	movss	xmm5, DWORD PTR [rcx+92]
	movaps	XMMWORD PTR [rsp+240], xmm8
	movaps	XMMWORD PTR [rsp+128], xmm15

; 136  : 		
; 137  : 		// Same for Z
; 138  : 		v0.z = mLeafVerts[0].z - center.z;

	movss	xmm8, DWORD PTR [rcx+80]

; 139  : 		v1.z = mLeafVerts[1].z - center.z;

	subss	xmm5, xmm0

; 140  : 		v2.z = mLeafVerts[2].z - center.z;

	subss	xmm7, xmm0
	subss	xmm8, xmm0
	movss	DWORD PTR v1$3$[rsp], xmm5

; 141  : 		
; 142  : 		FINDMINMAX(v0.z, v1.z, v2.z, min, max);

	comiss	xmm8, xmm5
	movaps	xmm1, xmm8
	movaps	xmm0, xmm8
	jbe	SHORT $LN38@prim
	movaps	xmm0, xmm5
$LN38@prim:
	comiss	xmm5, xmm8
	jbe	SHORT $LN37@prim
	movaps	xmm1, xmm5
$LN37@prim:
	comiss	xmm0, xmm7
	jbe	SHORT $LN36@prim
	movaps	xmm0, xmm7
$LN36@prim:
	comiss	xmm7, xmm1
	jbe	SHORT $LN35@prim
	movaps	xmm1, xmm7
$LN35@prim:

; 143  : 		if(min>extents.z || max<-extents.z) return false;

	movss	xmm15, DWORD PTR [rcx+68]
	comiss	xmm0, xmm15
	ja	$LN357@prim
	movaps	xmm0, xmm15
	xorps	xmm0, xmm3
	comiss	xmm0, xmm1
	ja	$LN357@prim
; File c:\x-ray\stcop\rgs\src\xrcdb\opc_point.h

; 375  : 		inline_	Point			operator-(const Point& p)			const		{ return Point(x - p.x, y - p.y, z - p.z);			}

	movaps	xmm1, xmm5
	movaps	XMMWORD PTR [rsp+272], xmm6
	movaps	XMMWORD PTR [rsp+160], xmm13
	subss	xmm1, xmm8
	movss	DWORD PTR e0$2$[rsp], xmm1
	movaps	xmm6, xmm4
	movaps	xmm13, xmm7
	movaps	xmm2, xmm10
	subss	xmm13, xmm5
	subss	xmm6, xmm12
	subss	xmm2, xmm11

; 393  : 		//! Operator for Point VecProd = Point ^ Point.
; 394  : 		ICF		Point			operator^(const Point& p)			const
; 395  : 								{
; 396  : 									return Point(
; 397  : 									y * p.z - z * p.y,
; 398  : 									z * p.x - x * p.z,
; 399  : 									x * p.y - y * p.x );

	movaps	xmm5, xmm13

; 375  : 		inline_	Point			operator-(const Point& p)			const		{ return Point(x - p.x, y - p.y, z - p.z);			}

	movaps	xmm12, xmm14

; 393  : 		//! Operator for Point VecProd = Point ^ Point.
; 394  : 		ICF		Point			operator^(const Point& p)			const
; 395  : 								{
; 396  : 									return Point(
; 397  : 									y * p.z - z * p.y,
; 398  : 									z * p.x - x * p.z,
; 399  : 									x * p.y - y * p.x );

	mulss	xmm5, xmm2

; 375  : 		inline_	Point			operator-(const Point& p)			const		{ return Point(x - p.x, y - p.y, z - p.z);			}

	subss	xmm12, xmm4
	movss	DWORD PTR e1$2$[rsp], xmm13
	movss	DWORD PTR e0$3$[rsp], xmm6
	movaps	xmm4, xmm9
	subss	xmm4, xmm10
	movss	DWORD PTR e1$3$[rsp], xmm12

; 393  : 		//! Operator for Point VecProd = Point ^ Point.
; 394  : 		ICF		Point			operator^(const Point& p)			const
; 395  : 								{
; 396  : 									return Point(
; 397  : 									y * p.z - z * p.y,
; 398  : 									z * p.x - x * p.z,
; 399  : 									x * p.y - y * p.x );

	movaps	xmm0, xmm4
	mulss	xmm0, xmm1
	subss	xmm5, xmm0
	movaps	xmm0, xmm13
	movaps	xmm13, xmm4
	movss	DWORD PTR normal$1$[rsp], xmm5
	movaps	xmm5, xmm12
	mulss	xmm0, xmm6
	mulss	xmm13, xmm6

; 370  : 		inline_	Point			operator-()							const		{ return Point(-x, -y, -z);							}

	movss	xmm6, DWORD PTR normal$1$[rsp]

; 393  : 		//! Operator for Point VecProd = Point ^ Point.
; 394  : 		ICF		Point			operator^(const Point& p)			const
; 395  : 								{
; 396  : 									return Point(
; 397  : 									y * p.z - z * p.y,
; 398  : 									z * p.x - x * p.z,
; 399  : 									x * p.y - y * p.x );

	mulss	xmm5, xmm1

; 370  : 		inline_	Point			operator-()							const		{ return Point(-x, -y, -z);							}

	movaps	xmm1, xmm6
	xorps	xmm1, xmm3

; 392  : 		inline_	float			operator|(const Point& p)			const		{ return x*p.x + y*p.y + z*p.z;						}

	mulss	xmm1, DWORD PTR v0$1$[rsp]

; 393  : 		//! Operator for Point VecProd = Point ^ Point.
; 394  : 		ICF		Point			operator^(const Point& p)			const
; 395  : 								{
; 396  : 									return Point(
; 397  : 									y * p.z - z * p.y,
; 398  : 									z * p.x - x * p.z,
; 399  : 									x * p.y - y * p.x );

	subss	xmm5, xmm0
	movaps	xmm0, xmm12
	movss	DWORD PTR normal$2$[rsp], xmm5
	mulss	xmm0, xmm2

; 370  : 		inline_	Point			operator-()							const		{ return Point(-x, -y, -z);							}

	xorps	xmm5, xmm3

; 393  : 		//! Operator for Point VecProd = Point ^ Point.
; 394  : 		ICF		Point			operator^(const Point& p)			const
; 395  : 								{
; 396  : 									return Point(
; 397  : 									y * p.z - z * p.y,
; 398  : 									z * p.x - x * p.z,
; 399  : 									x * p.y - y * p.x );

	subss	xmm13, xmm0

; 392  : 		inline_	float			operator|(const Point& p)			const		{ return x*p.x + y*p.y + z*p.z;						}

	mulss	xmm5, xmm11

; 393  : 		//! Operator for Point VecProd = Point ^ Point.
; 394  : 		ICF		Point			operator^(const Point& p)			const
; 395  : 								{
; 396  : 									return Point(
; 397  : 									y * p.z - z * p.y,
; 398  : 									z * p.x - x * p.z,
; 399  : 									x * p.y - y * p.x );

	movss	DWORD PTR normal$3$[rsp], xmm13

; 370  : 		inline_	Point			operator-()							const		{ return Point(-x, -y, -z);							}

	movaps	xmm0, xmm13
	xorps	xmm0, xmm3

; 392  : 		inline_	float			operator|(const Point& p)			const		{ return x*p.x + y*p.y + z*p.z;						}

	addss	xmm5, xmm1
	mulss	xmm0, xmm8
	addss	xmm5, xmm0
	movss	DWORD PTR d$1$[rsp], xmm5
	xorps	xmm5, xmm5
; File c:\x-ray\stcop\rgs\src\xrcdb\xrcdb_box.cpp

; 24   : 		if(((const float*)normal)[q]>0.0f)	{ ((float*)vmin)[q]=-((const float*)maxbox)[q]; ((float*)vmax)[q]=((const float*)maxbox)[q]; }

	comiss	xmm6, xmm5
	jbe	SHORT $LN94@prim
	movss	xmm12, DWORD PTR [rcx+60]
	movaps	xmm13, xmm12
	xorps	xmm13, xmm3

; 25   : 		else								{ ((float*)vmin)[q]=((const float*)maxbox)[q]; ((float*)vmax)[q]=-((const float*)maxbox)[q]; }

	jmp	SHORT $LN96@prim
$LN94@prim:
	movss	xmm13, DWORD PTR [rcx+60]
	movaps	xmm12, xmm13
	xorps	xmm12, xmm3
$LN96@prim:

; 24   : 		if(((const float*)normal)[q]>0.0f)	{ ((float*)vmin)[q]=-((const float*)maxbox)[q]; ((float*)vmax)[q]=((const float*)maxbox)[q]; }

	movss	xmm0, DWORD PTR normal$2$[rsp]
	comiss	xmm0, xmm5
	jbe	SHORT $LN346@prim
	movss	xmm0, DWORD PTR [rcx+64]
	movaps	xmm1, xmm0
	xorps	xmm1, xmm3

; 25   : 		else								{ ((float*)vmin)[q]=((const float*)maxbox)[q]; ((float*)vmax)[q]=-((const float*)maxbox)[q]; }

	jmp	SHORT $LN347@prim
$LN346@prim:
	movss	xmm1, DWORD PTR [rcx+64]
	movaps	xmm0, xmm1
	xorps	xmm0, xmm3
$LN347@prim:

; 24   : 		if(((const float*)normal)[q]>0.0f)	{ ((float*)vmin)[q]=-((const float*)maxbox)[q]; ((float*)vmax)[q]=((const float*)maxbox)[q]; }

	movss	xmm6, DWORD PTR normal$3$[rsp]
	comiss	xmm6, xmm5
	jbe	SHORT $LN349@prim
	movss	xmm5, xmm15
	movaps	xmm6, xmm5
	xorps	xmm6, xmm3

; 25   : 		else								{ ((float*)vmin)[q]=((const float*)maxbox)[q]; ((float*)vmax)[q]=-((const float*)maxbox)[q]; }

	jmp	SHORT $LN350@prim
$LN349@prim:
	movss	xmm6, xmm15
	movaps	xmm5, xmm6
	xorps	xmm5, xmm3
$LN350@prim:
; File c:\x-ray\stcop\rgs\src\xrcdb\opc_point.h

; 392  : 		inline_	float			operator|(const Point& p)			const		{ return x*p.x + y*p.y + z*p.z;						}

	mulss	xmm1, DWORD PTR normal$2$[rsp]
	mulss	xmm13, DWORD PTR normal$1$[rsp]
	addss	xmm1, xmm13
	movss	xmm13, DWORD PTR normal$3$[rsp]
	mulss	xmm6, xmm13
	addss	xmm1, xmm6
	xorps	xmm6, xmm6
; File c:\x-ray\stcop\rgs\src\xrcdb\xrcdb_box.cpp

; 27   : 	if((normal|vmin)+d>0.0f) return false;

	addss	xmm1, DWORD PTR d$1$[rsp]
	comiss	xmm1, xmm6
	ja	$LN359@prim
; File c:\x-ray\stcop\rgs\src\xrcdb\opc_point.h

; 392  : 		inline_	float			operator|(const Point& p)			const		{ return x*p.x + y*p.y + z*p.z;						}

	mulss	xmm0, DWORD PTR normal$2$[rsp]
	mulss	xmm12, DWORD PTR normal$1$[rsp]
	mulss	xmm5, xmm13
	addss	xmm0, xmm12
	addss	xmm0, xmm5
; File c:\x-ray\stcop\rgs\src\xrcdb\xrcdb_box.cpp

; 28   : 	if((normal|vmax)+d>=0.0f) return true;

	addss	xmm0, DWORD PTR d$1$[rsp]
	comiss	xmm0, xmm6
	jb	$LN359@prim
; File c:\program files (x86)\microsoft visual studio 12.0\vc\include\math.h

; 687  :     return (float)fabs(_X);

	movss	xmm12, DWORD PTR e0$2$[rsp]
	movsdx	xmm13, QWORD PTR __xmm@7fffffffffffffff7fffffffffffffff
	cvtps2pd xmm0, xmm2
	andps	xmm0, xmm13
; File c:\x-ray\stcop\rgs\src\xrcdb\xrcdb_box.cpp

; 167  : 			AXISTEST_X01(e0.z, e0.y, fez0, fey0);

	movaps	xmm5, xmm12
	movaps	xmm6, xmm12
	mulss	xmm5, xmm11
	mulss	xmm6, xmm9
; File c:\program files (x86)\microsoft visual studio 12.0\vc\include\math.h

; 687  :     return (float)fabs(_X);

	cvtpd2ps xmm0, xmm0
	movss	DWORD PTR fey0$1$[rsp], xmm0
	cvtps2pd xmm0, xmm12
	andps	xmm0, xmm13
	cvtpd2ps xmm0, xmm0
	movss	DWORD PTR fez0$1$[rsp], xmm0
; File c:\x-ray\stcop\rgs\src\xrcdb\xrcdb_box.cpp

; 167  : 			AXISTEST_X01(e0.z, e0.y, fez0, fey0);

	movaps	xmm0, xmm2
	mulss	xmm0, xmm8
	subss	xmm5, xmm0
	movaps	xmm0, xmm2
	mulss	xmm0, xmm7
	subss	xmm6, xmm0
	comiss	xmm5, xmm6
	jbe	SHORT $LN30@prim
	movaps	xmm0, xmm6
	movaps	xmm6, xmm5
	movaps	xmm5, xmm0
$LN30@prim:
	movss	xmm0, DWORD PTR fez0$1$[rsp]
	movaps	xmm1, xmm15
	mulss	xmm1, DWORD PTR fey0$1$[rsp]
	mulss	xmm0, DWORD PTR [rcx+64]
	addss	xmm1, xmm0
	comiss	xmm5, xmm1
	ja	$LN359@prim
	xorps	xmm1, xmm3
	comiss	xmm1, xmm6
	ja	$LN359@prim
; File c:\program files (x86)\microsoft visual studio 12.0\vc\include\math.h

; 687  :     return (float)fabs(_X);

	movss	xmm6, DWORD PTR e0$3$[rsp]
	cvtps2pd xmm0, xmm6
; File c:\x-ray\stcop\rgs\src\xrcdb\xrcdb_box.cpp

; 169  : 			AXISTEST_Y02(e0.z, e0.x, fez0, fex0);

	movaps	xmm5, xmm6
	mulss	xmm6, xmm7
; File c:\program files (x86)\microsoft visual studio 12.0\vc\include\math.h

; 687  :     return (float)fabs(_X);

	andps	xmm0, xmm13
; File c:\x-ray\stcop\rgs\src\xrcdb\xrcdb_box.cpp

; 169  : 			AXISTEST_Y02(e0.z, e0.x, fez0, fex0);

	mulss	xmm5, xmm8
; File c:\program files (x86)\microsoft visual studio 12.0\vc\include\math.h

; 687  :     return (float)fabs(_X);

	cvtpd2ps xmm1, xmm0
; File c:\x-ray\stcop\rgs\src\xrcdb\xrcdb_box.cpp

; 169  : 			AXISTEST_Y02(e0.z, e0.x, fez0, fex0);

	movaps	xmm0, xmm12
	mulss	xmm0, DWORD PTR v0$1$[rsp]
	mulss	xmm12, xmm14
	subss	xmm6, xmm12
	subss	xmm5, xmm0
	comiss	xmm5, xmm6
	jbe	SHORT $LN27@prim
	movaps	xmm0, xmm6
	movaps	xmm6, xmm5
	movaps	xmm5, xmm0
$LN27@prim:
	movss	xmm12, DWORD PTR fez0$1$[rsp]
	movaps	xmm0, xmm15
	mulss	xmm0, xmm1
	mulss	xmm12, DWORD PTR [rcx+60]
	addss	xmm0, xmm12
	comiss	xmm5, xmm0
	ja	$LN359@prim
	xorps	xmm0, xmm3
	comiss	xmm0, xmm6
	ja	$LN359@prim

; 170  : 			AXISTEST_Z12(e0.y, e0.x, fey0, fex0);

	movss	xmm6, DWORD PTR e0$3$[rsp]
	movss	xmm12, DWORD PTR v1$1$[rsp]
	movaps	xmm5, xmm2
	mulss	xmm2, xmm14
	mulss	xmm5, xmm12
	movaps	xmm0, xmm6
	mulss	xmm0, xmm10
	mulss	xmm6, xmm9
	subss	xmm5, xmm0
	subss	xmm2, xmm6
	comiss	xmm5, xmm2
	jbe	SHORT $LN24@prim
	movaps	xmm0, xmm2
	movaps	xmm2, xmm5
	movaps	xmm5, xmm0
$LN24@prim:
	movss	xmm0, DWORD PTR fey0$1$[rsp]
	mulss	xmm1, DWORD PTR [rcx+64]
	mulss	xmm0, DWORD PTR [rcx+60]
	addss	xmm1, xmm0
	comiss	xmm5, xmm1
	ja	$LN359@prim
	xorps	xmm1, xmm3
	comiss	xmm1, xmm2
	ja	$LN359@prim
; File c:\program files (x86)\microsoft visual studio 12.0\vc\include\math.h

; 687  :     return (float)fabs(_X);

	movss	xmm5, DWORD PTR e1$2$[rsp]
	cvtps2pd xmm0, xmm4
	andps	xmm0, xmm13
	cvtpd2ps xmm0, xmm0
	cvtps2pd xmm1, xmm5
; File c:\x-ray\stcop\rgs\src\xrcdb\xrcdb_box.cpp

; 174  : 			AXISTEST_X01(e1.z, e1.y, fez1, fey1);

	movaps	xmm2, xmm5
	mulss	xmm2, xmm11
	mulss	xmm5, xmm9
; File c:\program files (x86)\microsoft visual studio 12.0\vc\include\math.h

; 687  :     return (float)fabs(_X);

	andps	xmm1, xmm13
	movss	DWORD PTR fey1$1$[rsp], xmm0
	cvtpd2ps xmm6, xmm1
; File c:\x-ray\stcop\rgs\src\xrcdb\xrcdb_box.cpp

; 174  : 			AXISTEST_X01(e1.z, e1.y, fez1, fey1);

	movaps	xmm0, xmm4
	mulss	xmm0, xmm8
	subss	xmm2, xmm0
	movaps	xmm0, xmm4
	mulss	xmm0, xmm7
	subss	xmm5, xmm0
	comiss	xmm2, xmm5
	jbe	SHORT $LN21@prim
	movaps	xmm0, xmm5
	movaps	xmm5, xmm2
	movaps	xmm2, xmm0
$LN21@prim:
	movaps	xmm1, xmm15
	movaps	xmm0, xmm6
	mulss	xmm1, DWORD PTR fey1$1$[rsp]
	mulss	xmm0, DWORD PTR [rcx+64]
	addss	xmm1, xmm0
	comiss	xmm2, xmm1
	ja	$LN359@prim
	xorps	xmm1, xmm3
	comiss	xmm1, xmm5
	ja	$LN359@prim
; File c:\program files (x86)\microsoft visual studio 12.0\vc\include\math.h

; 687  :     return (float)fabs(_X);

	movss	xmm5, DWORD PTR e1$3$[rsp]
	cvtps2pd xmm0, xmm5
; File c:\x-ray\stcop\rgs\src\xrcdb\xrcdb_box.cpp

; 176  : 			AXISTEST_Y02(e1.z, e1.x, fez1, fex1);

	movaps	xmm2, xmm5
	mulss	xmm5, xmm7
; File c:\program files (x86)\microsoft visual studio 12.0\vc\include\math.h

; 687  :     return (float)fabs(_X);

	andps	xmm0, xmm13
; File c:\x-ray\stcop\rgs\src\xrcdb\xrcdb_box.cpp

; 176  : 			AXISTEST_Y02(e1.z, e1.x, fez1, fex1);

	mulss	xmm2, xmm8
; File c:\program files (x86)\microsoft visual studio 12.0\vc\include\math.h

; 687  :     return (float)fabs(_X);

	cvtpd2ps xmm1, xmm0
; File c:\x-ray\stcop\rgs\src\xrcdb\xrcdb_box.cpp

; 176  : 			AXISTEST_Y02(e1.z, e1.x, fez1, fex1);

	movss	xmm0, DWORD PTR e1$2$[rsp]
	mulss	xmm0, DWORD PTR v0$1$[rsp]
	subss	xmm2, xmm0
	movss	xmm0, DWORD PTR e1$2$[rsp]
	mulss	xmm0, xmm14
	subss	xmm5, xmm0
	comiss	xmm2, xmm5
	jbe	SHORT $LN18@prim
	movaps	xmm0, xmm5
	movaps	xmm5, xmm2
	movaps	xmm2, xmm0
$LN18@prim:
	movss	xmm7, DWORD PTR [rcx+60]
	movaps	xmm0, xmm15
	mulss	xmm0, xmm1
	mulss	xmm6, xmm7
	addss	xmm0, xmm6
	comiss	xmm2, xmm0
	ja	$LN359@prim
	xorps	xmm0, xmm3
	comiss	xmm0, xmm5
	ja	$LN359@prim

; 177  : 			AXISTEST_Z0(e1.y, e1.x, fey1, fex1);

	movss	xmm5, DWORD PTR e1$3$[rsp]
	movaps	xmm2, xmm4
	mulss	xmm4, xmm12
	mulss	xmm2, DWORD PTR v0$1$[rsp]
	movaps	xmm0, xmm5
	mulss	xmm0, xmm11
	mulss	xmm5, xmm10
	subss	xmm2, xmm0
	subss	xmm4, xmm5
	comiss	xmm2, xmm4
	jbe	SHORT $LN15@prim
	movaps	xmm0, xmm4
	movaps	xmm4, xmm2
	movaps	xmm2, xmm0
$LN15@prim:
	movss	xmm0, DWORD PTR fey1$1$[rsp]
	mulss	xmm1, DWORD PTR [rcx+64]
	mulss	xmm0, xmm7
	addss	xmm1, xmm0
	comiss	xmm2, xmm1
	ja	$LN359@prim
	xorps	xmm1, xmm3
	comiss	xmm1, xmm4
	ja	$LN359@prim
; File c:\x-ray\stcop\rgs\src\xrcdb\opc_point.h

; 375  : 		inline_	Point			operator-(const Point& p)			const		{ return Point(x - p.x, y - p.y, z - p.z);			}

	movss	xmm2, DWORD PTR [rcx+76]
	movss	xmm7, DWORD PTR [rcx+80]
	movss	xmm6, DWORD PTR [rcx+72]
	subss	xmm2, DWORD PTR [rcx+100]
	subss	xmm7, DWORD PTR [rcx+104]
	subss	xmm6, DWORD PTR [rcx+96]
; File c:\x-ray\stcop\rgs\src\xrcdb\xrcdb_box.cpp

; 182  : 			AXISTEST_X2(e2.z, e2.y, fez2, fey2);

	movaps	xmm4, xmm7
	movaps	xmm5, xmm7
	mulss	xmm4, xmm11
	mulss	xmm5, xmm10
	movss	xmm11, DWORD PTR v1$3$[rsp]
; File c:\program files (x86)\microsoft visual studio 12.0\vc\include\math.h

; 687  :     return (float)fabs(_X);

	cvtps2pd xmm0, xmm2
	cvtps2pd xmm1, xmm7
	andps	xmm0, xmm13
	andps	xmm1, xmm13
	cvtpd2ps xmm12, xmm0
	cvtpd2ps xmm14, xmm1
; File c:\x-ray\stcop\rgs\src\xrcdb\xrcdb_box.cpp

; 182  : 			AXISTEST_X2(e2.z, e2.y, fez2, fey2);

	movaps	xmm0, xmm2
	mulss	xmm0, xmm8
	subss	xmm4, xmm0
	movaps	xmm0, xmm2
	mulss	xmm0, xmm11
	subss	xmm5, xmm0
	comiss	xmm4, xmm5
	jbe	SHORT $LN12@prim
	movaps	xmm0, xmm5
	movaps	xmm5, xmm4
	movaps	xmm4, xmm0
$LN12@prim:
	movaps	xmm0, xmm14
	movaps	xmm1, xmm12
	mulss	xmm0, DWORD PTR [rcx+64]
	mulss	xmm1, xmm15
	addss	xmm1, xmm0
	comiss	xmm4, xmm1
	ja	$LN359@prim
	xorps	xmm1, xmm3
	comiss	xmm1, xmm5
	ja	$LN359@prim
; File c:\program files (x86)\microsoft visual studio 12.0\vc\include\math.h

; 687  :     return (float)fabs(_X);

	cvtps2pd xmm0, xmm6
; File c:\x-ray\stcop\rgs\src\xrcdb\xrcdb_box.cpp

; 184  : 			AXISTEST_Y1(e2.z, e2.x, fez2, fex2);

	movaps	xmm5, xmm6
	movaps	xmm4, xmm6
	mulss	xmm5, xmm8
	movss	xmm8, DWORD PTR v1$1$[rsp]
	mulss	xmm4, xmm11
; File c:\program files (x86)\microsoft visual studio 12.0\vc\include\math.h

; 687  :     return (float)fabs(_X);

	andps	xmm0, xmm13
	cvtpd2ps xmm1, xmm0
; File c:\x-ray\stcop\rgs\src\xrcdb\xrcdb_box.cpp

; 184  : 			AXISTEST_Y1(e2.z, e2.x, fez2, fex2);

	movaps	xmm0, xmm7
	mulss	xmm7, xmm8
	mulss	xmm0, DWORD PTR v0$1$[rsp]
	subss	xmm4, xmm7
	subss	xmm5, xmm0
	comiss	xmm5, xmm4
	jbe	SHORT $LN9@prim
	movaps	xmm0, xmm4
	movaps	xmm4, xmm5
	movaps	xmm5, xmm0
$LN9@prim:
	movss	xmm7, DWORD PTR [rcx+60]
	movaps	xmm0, xmm1
	mulss	xmm0, xmm15
	mulss	xmm14, xmm7
	addss	xmm0, xmm14
	comiss	xmm5, xmm0
	ja	$LN359@prim
	xorps	xmm0, xmm3
	comiss	xmm0, xmm4
	ja	$LN359@prim

; 185  : 			AXISTEST_Z12(e2.y, e2.x, fey2, fex2);

	movaps	xmm4, xmm2
	mulss	xmm2, DWORD PTR v2$1$[rsp]
	movaps	xmm0, xmm6
	mulss	xmm4, xmm8
	mulss	xmm0, xmm10
	mulss	xmm6, xmm9
	subss	xmm4, xmm0
	subss	xmm2, xmm6
	comiss	xmm4, xmm2
	jbe	SHORT $LN6@prim
	movaps	xmm0, xmm2
	movaps	xmm2, xmm4
	movaps	xmm4, xmm0
$LN6@prim:
	mulss	xmm1, DWORD PTR [rcx+64]
	mulss	xmm12, xmm7
	addss	xmm1, xmm12
	comiss	xmm4, xmm1
	ja	$LN359@prim
	xorps	xmm1, xmm3
	comiss	xmm1, xmm2
	ja	$LN359@prim
; File c:\x-ray\stcop\rgs\src\xrcdb\xrcdb.cpp

; 186  : 	rd.push_back		(RESULT());

	xor	eax, eax
	mov	QWORD PTR [rsp+296], rbx
; File c:\x-ray\stcop\rgs\src\xrcdb\xrcdb_box.cpp

; 196  : 		RESULT& R	= dest->r_add();

	mov	rbx, QWORD PTR [rcx]
; File c:\x-ray\stcop\rgs\src\xrcdb\xrcdb.cpp

; 186  : 	rd.push_back		(RESULT());

	lea	rdx, QWORD PTR $T1[rsp]
	lea	rcx, QWORD PTR [rbx+16]
	mov	QWORD PTR $T1[rsp], rax
	mov	QWORD PTR $T1[rsp+8], rax
	mov	QWORD PTR $T1[rsp+16], rax
	mov	QWORD PTR $T1[rsp+24], rax
	mov	QWORD PTR $T1[rsp+32], rax
	mov	QWORD PTR $T1[rsp+40], rax
	mov	QWORD PTR $T1[rsp+48], rax
	call	?push_back@?$vector@URESULT@CDB@@V?$xalloc@URESULT@CDB@@@@@std@@QEAAX$$QEAURESULT@CDB@@@Z ; std::vector<CDB::RESULT,xalloc<CDB::RESULT> >::push_back
; File c:\program files (x86)\microsoft visual studio 12.0\vc\include\vector

; 170  : 		_Ptr += _Off;

	mov	rcx, QWORD PTR [rbx+24]
; File c:\x-ray\stcop\rgs\src\xrcdb\xrcdb_box.cpp

; 197  : 		R.id		= prim;

	mov	eax, DWORD PTR prim$[rsp]
	mov	rbx, QWORD PTR [rsp+296]
	mov	DWORD PTR [rcx-16], eax

; 198  : 		R.verts[0]	= v0;

	movsdx	xmm0, QWORD PTR [rbp+rsi*4]
	movsdx	QWORD PTR [rcx-56], xmm0
	mov	eax, DWORD PTR [rbp+rsi*4+8]
	mov	DWORD PTR [rcx-48], eax

; 199  : 		R.verts[1]	= v1;

	movsdx	xmm0, QWORD PTR [r15+r14*4]
	movsdx	QWORD PTR [rcx-44], xmm0
	mov	eax, DWORD PTR [r15+r14*4+8]
	mov	DWORD PTR [rcx-36], eax

; 200  : 		R.verts[2]	= v2;

	movsdx	xmm0, QWORD PTR [r13+r12*4]
	movsdx	QWORD PTR [rcx-32], xmm0
	mov	eax, DWORD PTR [r13+r12*4+8]
	mov	DWORD PTR [rcx-24], eax

; 201  : 		R.dummy		= T.dummy;

	mov	eax, DWORD PTR [rdi+12]
	mov	DWORD PTR [rcx-20], eax
$LN359@prim:
	movaps	xmm13, XMMWORD PTR [rsp+160]
	movaps	xmm6, XMMWORD PTR [rsp+272]
$LN357@prim:
	movaps	xmm8, XMMWORD PTR [rsp+240]
	movaps	xmm15, XMMWORD PTR [rsp+128]
$LN355@prim:
	movaps	xmm9, XMMWORD PTR [rsp+224]
	movaps	xmm10, XMMWORD PTR [rsp+208]
	movaps	xmm11, XMMWORD PTR [rsp+192]
$LN2@prim:

; 202  : 	}

	lea	r11, QWORD PTR [rsp+304]
	movaps	xmm7, XMMWORD PTR [r11-48]
	movaps	xmm12, XMMWORD PTR [r11-128]
	movaps	xmm14, XMMWORD PTR [r11-160]
	mov	rsp, r11
	pop	r15
	pop	r14
	pop	r13
	pop	r12
	pop	rdi
	pop	rsi
	pop	rbp
	ret	0
?_prim@?$box_collider@$00$00@@QEAAXK@Z ENDP		; box_collider<1,1>::_prim
_TEXT	ENDS
; Function compile flags: /Ogtpy
; File c:\x-ray\stcop\rgs\src\xrcdb\xrcdb_box.cpp
;	COMDAT ?_box@?$box_collider@$00$0A@@@QEAA_NAEBU?$_vector3@M@@0@Z
_TEXT	SEGMENT
this$ = 8
C$ = 16
E$ = 24
?_box@?$box_collider@$00$0A@@@QEAA_NAEBU?$_vector3@M@@0@Z PROC ; box_collider<1,0>::_box, COMDAT

; 107  : 		if( b_max.x < C.x-E.x )	return false;

	movss	xmm3, DWORD PTR [r8]
	movss	xmm0, DWORD PTR [rdx]
	subss	xmm0, xmm3
	comiss	xmm0, DWORD PTR [rcx+36]
	jbe	SHORT $LN6@box
$LN9@box:
	xor	al, al

; 113  : 		return true;
; 114  : 	};

	ret	0
$LN6@box:

; 108  : 		if( b_max.y < C.y-E.y )	return false;

	movss	xmm4, DWORD PTR [rdx+4]
	movss	xmm1, DWORD PTR [r8+4]
	movaps	xmm0, xmm4
	subss	xmm0, xmm1
	comiss	xmm0, DWORD PTR [rcx+40]
	ja	SHORT $LN9@box

; 109  : 		if( b_max.z < C.z-E.z )	return false;

	movss	xmm5, DWORD PTR [rdx+8]
	movss	xmm2, DWORD PTR [r8+8]
	movaps	xmm0, xmm5
	subss	xmm0, xmm2
	comiss	xmm0, DWORD PTR [rcx+44]
	ja	SHORT $LN9@box

; 110  : 		if( b_min.x > C.x+E.x )	return false;

	addss	xmm3, DWORD PTR [rdx]
	movss	xmm0, DWORD PTR [rcx+24]
	comiss	xmm0, xmm3
	ja	SHORT $LN9@box

; 111  : 		if( b_min.y > C.y+E.y )	return false;

	movss	xmm0, DWORD PTR [rcx+28]
	addss	xmm1, xmm4
	comiss	xmm0, xmm1
	ja	SHORT $LN9@box

; 112  : 		if( b_min.z > C.z+E.z )	return false;

	movss	xmm0, DWORD PTR [rcx+32]
	addss	xmm2, xmm5
	comiss	xmm0, xmm2
	setbe	al

; 113  : 		return true;
; 114  : 	};

	ret	0
?_box@?$box_collider@$00$0A@@@QEAA_NAEBU?$_vector3@M@@0@Z ENDP ; box_collider<1,0>::_box
_TEXT	ENDS
; Function compile flags: /Ogtpy
; File c:\x-ray\stcop\rgs\src\xrcdb\xrcdb_box.cpp
; File c:\x-ray\stcop\rgs\src\xrcdb\opc_point.h
; File c:\x-ray\stcop\rgs\src\xrcdb\xrcdb_box.cpp
; File c:\x-ray\stcop\rgs\src\xrcdb\opc_point.h
; File c:\x-ray\stcop\rgs\src\xrcdb\xrcdb_box.cpp
; File c:\x-ray\stcop\rgs\src\xrcdb\opc_point.h
; File c:\x-ray\stcop\rgs\src\xrcdb\xrcdb_box.cpp
; File c:\program files (x86)\microsoft visual studio 12.0\vc\include\math.h
; File c:\x-ray\stcop\rgs\src\xrcdb\xrcdb_box.cpp
; File c:\program files (x86)\microsoft visual studio 12.0\vc\include\math.h
; File c:\x-ray\stcop\rgs\src\xrcdb\xrcdb_box.cpp
; File c:\program files (x86)\microsoft visual studio 12.0\vc\include\math.h
; File c:\x-ray\stcop\rgs\src\xrcdb\xrcdb_box.cpp
; File c:\program files (x86)\microsoft visual studio 12.0\vc\include\math.h
; File c:\x-ray\stcop\rgs\src\xrcdb\xrcdb_box.cpp
; File c:\program files (x86)\microsoft visual studio 12.0\vc\include\math.h
; File c:\x-ray\stcop\rgs\src\xrcdb\xrcdb_box.cpp
; File c:\program files (x86)\microsoft visual studio 12.0\vc\include\math.h
; File c:\x-ray\stcop\rgs\src\xrcdb\xrcdb_box.cpp
; File c:\program files (x86)\microsoft visual studio 12.0\vc\include\math.h
; File c:\x-ray\stcop\rgs\src\xrcdb\xrcdb_box.cpp
; File c:\program files (x86)\microsoft visual studio 12.0\vc\include\math.h
; File c:\x-ray\stcop\rgs\src\xrcdb\xrcdb_box.cpp
; File c:\program files (x86)\microsoft visual studio 12.0\vc\include\math.h
; File c:\x-ray\stcop\rgs\src\xrcdb\xrcdb_box.cpp
; File c:\program files (x86)\microsoft visual studio 12.0\vc\include\math.h
; File c:\x-ray\stcop\rgs\src\xrcdb\xrcdb_box.cpp
; File c:\x-ray\stcop\rgs\src\xrcdb\opc_point.h
; File c:\x-ray\stcop\rgs\src\xrcdb\xrcdb_box.cpp
; File c:\program files (x86)\microsoft visual studio 12.0\vc\include\math.h
; File c:\x-ray\stcop\rgs\src\xrcdb\xrcdb_box.cpp
; File c:\program files (x86)\microsoft visual studio 12.0\vc\include\math.h
; File c:\x-ray\stcop\rgs\src\xrcdb\xrcdb_box.cpp
; File c:\program files (x86)\microsoft visual studio 12.0\vc\include\math.h
; File c:\x-ray\stcop\rgs\src\xrcdb\xrcdb_box.cpp
; File c:\x-ray\stcop\rgs\src\xrcdb\xrcdb.cpp
; File c:\x-ray\stcop\rgs\src\xrcdb\xrcdb_box.cpp
; File c:\x-ray\stcop\rgs\src\xrcdb\xrcdb.cpp
; File c:\program files (x86)\microsoft visual studio 12.0\vc\include\vector
; File c:\x-ray\stcop\rgs\src\xrcdb\xrcdb_box.cpp
;	COMDAT ?_prim@?$box_collider@$00$0A@@@QEAAXK@Z
_TEXT	SEGMENT
e1$2$ = 32
e1$3$ = 36
v1$1$ = 40
normal$3$ = 44
e0$3$ = 48
d$1$ = 52
e0$2$ = 56
v2$1$ = 60
v1$3$ = 64
$T1 = 68
v0$1$ = 368
this$ = 368
prim$ = 376
normal$2$ = 384
fey1$1$ = 384
fez0$1$ = 384
normal$1$ = 392
fey0$1$ = 392
?_prim@?$box_collider@$00$0A@@@QEAAXK@Z PROC		; box_collider<1,0>::_prim, COMDAT

; 190  : 	{

$LN361:
	mov	rax, rsp
	mov	DWORD PTR [rax+16], edx
	push	rbp
	push	rsi
	push	rdi
	push	r12
	push	r13
	push	r14
	push	r15
	sub	rsp, 304				; 00000130H

; 191  : 		TRI&	T	= tris[prim];
; 192  : 		Fvector& v0	= verts[ T.verts[0] ];	mLeafVerts[0].x = v0.x;	mLeafVerts[0].y = v0.y;	mLeafVerts[0].z = v0.z;

	mov	rbp, QWORD PTR [rcx+16]
	movaps	XMMWORD PTR [rax-104], xmm7
	movaps	XMMWORD PTR [rax-184], xmm12
	mov	edi, edx
	shl	rdi, 4
	add	rdi, QWORD PTR [rcx+8]
	movaps	XMMWORD PTR [rax-216], xmm14
	mov	eax, DWORD PTR [rdi]
	lea	rsi, QWORD PTR [rax+rax*2]
	movss	xmm12, DWORD PTR [rbp+rsi*4]
	movss	DWORD PTR [rcx+72], xmm12
	mov	eax, DWORD PTR [rbp+rsi*4+4]
	mov	DWORD PTR [rcx+76], eax
	mov	eax, DWORD PTR [rbp+rsi*4+8]
	mov	DWORD PTR [rcx+80], eax

; 193  : 		Fvector& v1	= verts[ T.verts[1] ];	mLeafVerts[1].x = v1.x;	mLeafVerts[1].y = v1.y;	mLeafVerts[1].z = v1.z;

	mov	eax, DWORD PTR [rdi+4]
	mov	r15, QWORD PTR [rcx+16]
	lea	r14, QWORD PTR [rax+rax*2]
	movss	xmm4, DWORD PTR [r15+r14*4]
	movss	DWORD PTR [rcx+84], xmm4
	mov	eax, DWORD PTR [r15+r14*4+4]
	mov	DWORD PTR [rcx+88], eax
	mov	eax, DWORD PTR [r15+r14*4+8]
	mov	DWORD PTR [rcx+92], eax

; 194  : 		Fvector& v2	= verts[ T.verts[2] ];	mLeafVerts[2].x = v2.x;	mLeafVerts[2].y = v2.y;	mLeafVerts[2].z = v2.z;

	mov	r13, QWORD PTR [rcx+16]
	mov	eax, DWORD PTR [rdi+8]
	lea	r12, QWORD PTR [rax+rax*2]
	movss	xmm14, DWORD PTR [r13+r12*4]
	movss	DWORD PTR [rcx+96], xmm14
	mov	eax, DWORD PTR [r13+r12*4+4]
	mov	DWORD PTR [rcx+100], eax
	movss	xmm7, DWORD PTR [r13+r12*4+8]
	movss	DWORD PTR [rcx+104], xmm7

; 29   : 
; 30   : 	return false;
; 31   : }
; 32   : 
; 33   : //! TO BE DOCUMENTED
; 34   : #define AXISTEST_X01(a, b, fa, fb)							\
; 35   : 	min = a*v0.y - b*v0.z;									\
; 36   : 	max = a*v2.y - b*v2.z;									\
; 37   : 	if(min>max) {const float tmp=max; max=min; min=tmp;	}	\
; 38   : 	rad = fa * extents.y + fb * extents.z;					\
; 39   : 	if(min>rad || max<-rad) return false;
; 40   : 
; 41   : //! TO BE DOCUMENTED
; 42   : #define AXISTEST_X2(a, b, fa, fb)							\
; 43   : 	min = a*v0.y - b*v0.z;									\
; 44   : 	max = a*v1.y - b*v1.z;									\
; 45   : 	if(min>max) {const float tmp=max; max=min; min=tmp;	}	\
; 46   : 	rad = fa * extents.y + fb * extents.z;					\
; 47   : 	if(min>rad || max<-rad) return false;
; 48   : 
; 49   : //! TO BE DOCUMENTED
; 50   : #define AXISTEST_Y02(a, b, fa, fb)							\
; 51   : 	min = b*v0.z - a*v0.x;									\
; 52   : 	max = b*v2.z - a*v2.x;									\
; 53   : 	if(min>max) {const float tmp=max; max=min; min=tmp;	}	\
; 54   : 	rad = fa * extents.x + fb * extents.z;					\
; 55   : 	if(min>rad || max<-rad) return false;
; 56   : 
; 57   : //! TO BE DOCUMENTED
; 58   : #define AXISTEST_Y1(a, b, fa, fb)							\
; 59   : 	min = b*v0.z - a*v0.x;									\
; 60   : 	max = b*v1.z - a*v1.x;									\
; 61   : 	if(min>max) {const float tmp=max; max=min; min=tmp;	}	\
; 62   : 	rad = fa * extents.x + fb * extents.z;					\
; 63   : 	if(min>rad || max<-rad) return false;
; 64   : 
; 65   : //! TO BE DOCUMENTED
; 66   : #define AXISTEST_Z12(a, b, fa, fb)							\
; 67   : 	min = a*v1.x - b*v1.y;									\
; 68   : 	max = a*v2.x - b*v2.y;									\
; 69   : 	if(min>max) {const float tmp=max; max=min; min=tmp;	}	\
; 70   : 	rad = fa * extents.x + fb * extents.y;					\
; 71   : 	if(min>rad || max<-rad) return false;
; 72   : 
; 73   : //! TO BE DOCUMENTED
; 74   : #define AXISTEST_Z0(a, b, fa, fb)							\
; 75   : 	min = a*v0.x - b*v0.y;									\
; 76   : 	max = a*v1.x - b*v1.y;									\
; 77   : 	if(min>max) {const float tmp=max; max=min; min=tmp;	}	\
; 78   : 	rad = fa * extents.x + fb * extents.y;					\
; 79   : 	if(min>rad || max<-rad) return false;
; 80   : 
; 81   : 
; 82   : template <bool bClass3, bool bFirst>
; 83   : class box_collider
; 84   : {
; 85   : public:
; 86   : 	COLLIDER*		dest;
; 87   : 	TRI*			tris;
; 88   : 	Fvector*		verts;
; 89   : 	
; 90   : 	Fvector			b_min, b_max;
; 91   : 	Point			center, extents;
; 92   : 
; 93   : 	Point			mLeafVerts	[3];
; 94   : 	
; 95   : 	IC void			_init		(COLLIDER* CL, Fvector* V, TRI* T, const Fvector& C, const Fvector& E)
; 96   : 	{
; 97   : 		dest		= CL;
; 98   : 		verts		= V;
; 99   : 		tris		= T;
; 100  : 		center		= Point(C.x,C.y,C.z);
; 101  : 		extents		= Point(E.x,E.y,E.z);
; 102  : 		b_min.sub	(C,E);
; 103  : 		b_max.add	(C,E);
; 104  : 	}
; 105  : 	ICF	bool		_box		(const Fvector& C, const Fvector& E)
; 106  : 	{
; 107  : 		if( b_max.x < C.x-E.x )	return false;
; 108  : 		if( b_max.y < C.y-E.y )	return false;
; 109  : 		if( b_max.z < C.z-E.z )	return false;
; 110  : 		if( b_min.x > C.x+E.x )	return false;
; 111  : 		if( b_min.y > C.y+E.y )	return false;
; 112  : 		if( b_min.z > C.z+E.z )	return false;
; 113  : 		return true;
; 114  : 	};
; 115  : 	ICF	bool		_tri		()
; 116  : 	{
; 117  : 		// move everything so that the boxcenter is in (0,0,0) 
; 118  : 		Point v0, v1, v2;
; 119  : 		v0.x = mLeafVerts[0].x - center.x;

	movss	xmm0, DWORD PTR [rcx+48]
	subss	xmm12, xmm0

; 120  : 		v1.x = mLeafVerts[1].x - center.x;

	subss	xmm4, xmm0

; 121  : 		v2.x = mLeafVerts[2].x - center.x;

	subss	xmm14, xmm0

; 122  : 		
; 123  : 		// First, test overlap in the {x,y,z}-directions
; 124  : 		float min,max;
; 125  : 		// Find min, max of the triangle in x-direction, and test for overlap in X
; 126  : 		FINDMINMAX(v0.x, v1.x, v2.x, min, max);

	movaps	xmm1, xmm12
	movaps	xmm0, xmm12
	comiss	xmm12, xmm4
	movss	DWORD PTR v0$1$[rsp], xmm12
	movss	DWORD PTR v1$1$[rsp], xmm4
	movss	DWORD PTR v2$1$[rsp], xmm14
	jbe	SHORT $LN50@prim
	movaps	xmm0, xmm4
$LN50@prim:
	comiss	xmm4, xmm12
	jbe	SHORT $LN49@prim
	movaps	xmm1, xmm4
$LN49@prim:
	comiss	xmm0, xmm14
	jbe	SHORT $LN48@prim
	movaps	xmm0, xmm14
$LN48@prim:
	comiss	xmm14, xmm1
	jbe	SHORT $LN47@prim
	movaps	xmm1, xmm14
$LN47@prim:

; 127  : 		if(min>extents.x || max<-extents.x) return false;

	movss	xmm2, DWORD PTR [rcx+60]
	comiss	xmm0, xmm2
	ja	$LN2@prim
	movss	xmm3, DWORD PTR __xmm@80000000800000008000000080000000
	movaps	xmm0, xmm2
	xorps	xmm0, xmm3
	comiss	xmm0, xmm1
	ja	$LN2@prim

; 128  : 		
; 129  : 		// Same for Y
; 130  : 		v0.y = mLeafVerts[0].y - center.y;

	movss	xmm0, DWORD PTR [rcx+52]
	movaps	XMMWORD PTR [rsp+224], xmm9

; 132  : 		v2.y = mLeafVerts[2].y - center.y;

	movss	xmm9, DWORD PTR [rcx+100]
	movaps	XMMWORD PTR [rsp+208], xmm10
	movaps	XMMWORD PTR [rsp+192], xmm11

; 128  : 		
; 129  : 		// Same for Y
; 130  : 		v0.y = mLeafVerts[0].y - center.y;

	movss	xmm11, DWORD PTR [rcx+76]

; 131  : 		v1.y = mLeafVerts[1].y - center.y;

	movss	xmm10, DWORD PTR [rcx+88]

; 132  : 		v2.y = mLeafVerts[2].y - center.y;

	subss	xmm9, xmm0
	subss	xmm11, xmm0
	subss	xmm10, xmm0

; 133  : 		
; 134  : 		FINDMINMAX(v0.y, v1.y, v2.y, min, max);

	movaps	xmm1, xmm11
	movaps	xmm0, xmm11
	comiss	xmm11, xmm10
	jbe	SHORT $LN44@prim
	movaps	xmm0, xmm10
$LN44@prim:
	comiss	xmm10, xmm11
	jbe	SHORT $LN43@prim
	movaps	xmm1, xmm10
$LN43@prim:
	comiss	xmm0, xmm9
	jbe	SHORT $LN42@prim
	movaps	xmm0, xmm9
$LN42@prim:
	comiss	xmm9, xmm1
	jbe	SHORT $LN41@prim
	movaps	xmm1, xmm9
$LN41@prim:

; 135  : 		if(min>extents.y || max<-extents.y) return false;

	movss	xmm2, DWORD PTR [rcx+64]
	comiss	xmm0, xmm2
	ja	$LN355@prim
	movaps	xmm0, xmm2
	xorps	xmm0, xmm3
	comiss	xmm0, xmm1
	ja	$LN355@prim

; 136  : 		
; 137  : 		// Same for Z
; 138  : 		v0.z = mLeafVerts[0].z - center.z;

	movss	xmm0, DWORD PTR [rcx+56]

; 139  : 		v1.z = mLeafVerts[1].z - center.z;

	movss	xmm5, DWORD PTR [rcx+92]
	movaps	XMMWORD PTR [rsp+240], xmm8
	movaps	XMMWORD PTR [rsp+128], xmm15

; 136  : 		
; 137  : 		// Same for Z
; 138  : 		v0.z = mLeafVerts[0].z - center.z;

	movss	xmm8, DWORD PTR [rcx+80]

; 139  : 		v1.z = mLeafVerts[1].z - center.z;

	subss	xmm5, xmm0

; 140  : 		v2.z = mLeafVerts[2].z - center.z;

	subss	xmm7, xmm0
	subss	xmm8, xmm0
	movss	DWORD PTR v1$3$[rsp], xmm5

; 141  : 		
; 142  : 		FINDMINMAX(v0.z, v1.z, v2.z, min, max);

	comiss	xmm8, xmm5
	movaps	xmm1, xmm8
	movaps	xmm0, xmm8
	jbe	SHORT $LN38@prim
	movaps	xmm0, xmm5
$LN38@prim:
	comiss	xmm5, xmm8
	jbe	SHORT $LN37@prim
	movaps	xmm1, xmm5
$LN37@prim:
	comiss	xmm0, xmm7
	jbe	SHORT $LN36@prim
	movaps	xmm0, xmm7
$LN36@prim:
	comiss	xmm7, xmm1
	jbe	SHORT $LN35@prim
	movaps	xmm1, xmm7
$LN35@prim:

; 143  : 		if(min>extents.z || max<-extents.z) return false;

	movss	xmm15, DWORD PTR [rcx+68]
	comiss	xmm0, xmm15
	ja	$LN357@prim
	movaps	xmm0, xmm15
	xorps	xmm0, xmm3
	comiss	xmm0, xmm1
	ja	$LN357@prim
; File c:\x-ray\stcop\rgs\src\xrcdb\opc_point.h

; 375  : 		inline_	Point			operator-(const Point& p)			const		{ return Point(x - p.x, y - p.y, z - p.z);			}

	movaps	xmm1, xmm5
	movaps	XMMWORD PTR [rsp+272], xmm6
	movaps	XMMWORD PTR [rsp+160], xmm13
	subss	xmm1, xmm8
	movss	DWORD PTR e0$2$[rsp], xmm1
	movaps	xmm6, xmm4
	movaps	xmm13, xmm7
	movaps	xmm2, xmm10
	subss	xmm13, xmm5
	subss	xmm6, xmm12
	subss	xmm2, xmm11

; 393  : 		//! Operator for Point VecProd = Point ^ Point.
; 394  : 		ICF		Point			operator^(const Point& p)			const
; 395  : 								{
; 396  : 									return Point(
; 397  : 									y * p.z - z * p.y,
; 398  : 									z * p.x - x * p.z,
; 399  : 									x * p.y - y * p.x );

	movaps	xmm5, xmm13

; 375  : 		inline_	Point			operator-(const Point& p)			const		{ return Point(x - p.x, y - p.y, z - p.z);			}

	movaps	xmm12, xmm14

; 393  : 		//! Operator for Point VecProd = Point ^ Point.
; 394  : 		ICF		Point			operator^(const Point& p)			const
; 395  : 								{
; 396  : 									return Point(
; 397  : 									y * p.z - z * p.y,
; 398  : 									z * p.x - x * p.z,
; 399  : 									x * p.y - y * p.x );

	mulss	xmm5, xmm2

; 375  : 		inline_	Point			operator-(const Point& p)			const		{ return Point(x - p.x, y - p.y, z - p.z);			}

	subss	xmm12, xmm4
	movss	DWORD PTR e1$2$[rsp], xmm13
	movss	DWORD PTR e0$3$[rsp], xmm6
	movaps	xmm4, xmm9
	subss	xmm4, xmm10
	movss	DWORD PTR e1$3$[rsp], xmm12

; 393  : 		//! Operator for Point VecProd = Point ^ Point.
; 394  : 		ICF		Point			operator^(const Point& p)			const
; 395  : 								{
; 396  : 									return Point(
; 397  : 									y * p.z - z * p.y,
; 398  : 									z * p.x - x * p.z,
; 399  : 									x * p.y - y * p.x );

	movaps	xmm0, xmm4
	mulss	xmm0, xmm1
	subss	xmm5, xmm0
	movaps	xmm0, xmm13
	movaps	xmm13, xmm4
	movss	DWORD PTR normal$1$[rsp], xmm5
	movaps	xmm5, xmm12
	mulss	xmm0, xmm6
	mulss	xmm13, xmm6

; 370  : 		inline_	Point			operator-()							const		{ return Point(-x, -y, -z);							}

	movss	xmm6, DWORD PTR normal$1$[rsp]

; 393  : 		//! Operator for Point VecProd = Point ^ Point.
; 394  : 		ICF		Point			operator^(const Point& p)			const
; 395  : 								{
; 396  : 									return Point(
; 397  : 									y * p.z - z * p.y,
; 398  : 									z * p.x - x * p.z,
; 399  : 									x * p.y - y * p.x );

	mulss	xmm5, xmm1

; 370  : 		inline_	Point			operator-()							const		{ return Point(-x, -y, -z);							}

	movaps	xmm1, xmm6
	xorps	xmm1, xmm3

; 392  : 		inline_	float			operator|(const Point& p)			const		{ return x*p.x + y*p.y + z*p.z;						}

	mulss	xmm1, DWORD PTR v0$1$[rsp]

; 393  : 		//! Operator for Point VecProd = Point ^ Point.
; 394  : 		ICF		Point			operator^(const Point& p)			const
; 395  : 								{
; 396  : 									return Point(
; 397  : 									y * p.z - z * p.y,
; 398  : 									z * p.x - x * p.z,
; 399  : 									x * p.y - y * p.x );

	subss	xmm5, xmm0
	movaps	xmm0, xmm12
	movss	DWORD PTR normal$2$[rsp], xmm5
	mulss	xmm0, xmm2

; 370  : 		inline_	Point			operator-()							const		{ return Point(-x, -y, -z);							}

	xorps	xmm5, xmm3

; 393  : 		//! Operator for Point VecProd = Point ^ Point.
; 394  : 		ICF		Point			operator^(const Point& p)			const
; 395  : 								{
; 396  : 									return Point(
; 397  : 									y * p.z - z * p.y,
; 398  : 									z * p.x - x * p.z,
; 399  : 									x * p.y - y * p.x );

	subss	xmm13, xmm0

; 392  : 		inline_	float			operator|(const Point& p)			const		{ return x*p.x + y*p.y + z*p.z;						}

	mulss	xmm5, xmm11

; 393  : 		//! Operator for Point VecProd = Point ^ Point.
; 394  : 		ICF		Point			operator^(const Point& p)			const
; 395  : 								{
; 396  : 									return Point(
; 397  : 									y * p.z - z * p.y,
; 398  : 									z * p.x - x * p.z,
; 399  : 									x * p.y - y * p.x );

	movss	DWORD PTR normal$3$[rsp], xmm13

; 370  : 		inline_	Point			operator-()							const		{ return Point(-x, -y, -z);							}

	movaps	xmm0, xmm13
	xorps	xmm0, xmm3

; 392  : 		inline_	float			operator|(const Point& p)			const		{ return x*p.x + y*p.y + z*p.z;						}

	addss	xmm5, xmm1
	mulss	xmm0, xmm8
	addss	xmm5, xmm0
	movss	DWORD PTR d$1$[rsp], xmm5
	xorps	xmm5, xmm5
; File c:\x-ray\stcop\rgs\src\xrcdb\xrcdb_box.cpp

; 24   : 		if(((const float*)normal)[q]>0.0f)	{ ((float*)vmin)[q]=-((const float*)maxbox)[q]; ((float*)vmax)[q]=((const float*)maxbox)[q]; }

	comiss	xmm6, xmm5
	jbe	SHORT $LN94@prim
	movss	xmm12, DWORD PTR [rcx+60]
	movaps	xmm13, xmm12
	xorps	xmm13, xmm3

; 25   : 		else								{ ((float*)vmin)[q]=((const float*)maxbox)[q]; ((float*)vmax)[q]=-((const float*)maxbox)[q]; }

	jmp	SHORT $LN96@prim
$LN94@prim:
	movss	xmm13, DWORD PTR [rcx+60]
	movaps	xmm12, xmm13
	xorps	xmm12, xmm3
$LN96@prim:

; 24   : 		if(((const float*)normal)[q]>0.0f)	{ ((float*)vmin)[q]=-((const float*)maxbox)[q]; ((float*)vmax)[q]=((const float*)maxbox)[q]; }

	movss	xmm0, DWORD PTR normal$2$[rsp]
	comiss	xmm0, xmm5
	jbe	SHORT $LN346@prim
	movss	xmm0, DWORD PTR [rcx+64]
	movaps	xmm1, xmm0
	xorps	xmm1, xmm3

; 25   : 		else								{ ((float*)vmin)[q]=((const float*)maxbox)[q]; ((float*)vmax)[q]=-((const float*)maxbox)[q]; }

	jmp	SHORT $LN347@prim
$LN346@prim:
	movss	xmm1, DWORD PTR [rcx+64]
	movaps	xmm0, xmm1
	xorps	xmm0, xmm3
$LN347@prim:

; 24   : 		if(((const float*)normal)[q]>0.0f)	{ ((float*)vmin)[q]=-((const float*)maxbox)[q]; ((float*)vmax)[q]=((const float*)maxbox)[q]; }

	movss	xmm6, DWORD PTR normal$3$[rsp]
	comiss	xmm6, xmm5
	jbe	SHORT $LN349@prim
	movss	xmm5, xmm15
	movaps	xmm6, xmm5
	xorps	xmm6, xmm3

; 25   : 		else								{ ((float*)vmin)[q]=((const float*)maxbox)[q]; ((float*)vmax)[q]=-((const float*)maxbox)[q]; }

	jmp	SHORT $LN350@prim
$LN349@prim:
	movss	xmm6, xmm15
	movaps	xmm5, xmm6
	xorps	xmm5, xmm3
$LN350@prim:
; File c:\x-ray\stcop\rgs\src\xrcdb\opc_point.h

; 392  : 		inline_	float			operator|(const Point& p)			const		{ return x*p.x + y*p.y + z*p.z;						}

	mulss	xmm1, DWORD PTR normal$2$[rsp]
	mulss	xmm13, DWORD PTR normal$1$[rsp]
	addss	xmm1, xmm13
	movss	xmm13, DWORD PTR normal$3$[rsp]
	mulss	xmm6, xmm13
	addss	xmm1, xmm6
	xorps	xmm6, xmm6
; File c:\x-ray\stcop\rgs\src\xrcdb\xrcdb_box.cpp

; 27   : 	if((normal|vmin)+d>0.0f) return false;

	addss	xmm1, DWORD PTR d$1$[rsp]
	comiss	xmm1, xmm6
	ja	$LN359@prim
; File c:\x-ray\stcop\rgs\src\xrcdb\opc_point.h

; 392  : 		inline_	float			operator|(const Point& p)			const		{ return x*p.x + y*p.y + z*p.z;						}

	mulss	xmm0, DWORD PTR normal$2$[rsp]
	mulss	xmm12, DWORD PTR normal$1$[rsp]
	mulss	xmm5, xmm13
	addss	xmm0, xmm12
	addss	xmm0, xmm5
; File c:\x-ray\stcop\rgs\src\xrcdb\xrcdb_box.cpp

; 28   : 	if((normal|vmax)+d>=0.0f) return true;

	addss	xmm0, DWORD PTR d$1$[rsp]
	comiss	xmm0, xmm6
	jb	$LN359@prim
; File c:\program files (x86)\microsoft visual studio 12.0\vc\include\math.h

; 687  :     return (float)fabs(_X);

	movss	xmm12, DWORD PTR e0$2$[rsp]
	movsdx	xmm13, QWORD PTR __xmm@7fffffffffffffff7fffffffffffffff
	cvtps2pd xmm0, xmm2
	andps	xmm0, xmm13
; File c:\x-ray\stcop\rgs\src\xrcdb\xrcdb_box.cpp

; 167  : 			AXISTEST_X01(e0.z, e0.y, fez0, fey0);

	movaps	xmm5, xmm12
	movaps	xmm6, xmm12
	mulss	xmm5, xmm11
	mulss	xmm6, xmm9
; File c:\program files (x86)\microsoft visual studio 12.0\vc\include\math.h

; 687  :     return (float)fabs(_X);

	cvtpd2ps xmm0, xmm0
	movss	DWORD PTR fey0$1$[rsp], xmm0
	cvtps2pd xmm0, xmm12
	andps	xmm0, xmm13
	cvtpd2ps xmm0, xmm0
	movss	DWORD PTR fez0$1$[rsp], xmm0
; File c:\x-ray\stcop\rgs\src\xrcdb\xrcdb_box.cpp

; 167  : 			AXISTEST_X01(e0.z, e0.y, fez0, fey0);

	movaps	xmm0, xmm2
	mulss	xmm0, xmm8
	subss	xmm5, xmm0
	movaps	xmm0, xmm2
	mulss	xmm0, xmm7
	subss	xmm6, xmm0
	comiss	xmm5, xmm6
	jbe	SHORT $LN30@prim
	movaps	xmm0, xmm6
	movaps	xmm6, xmm5
	movaps	xmm5, xmm0
$LN30@prim:
	movss	xmm0, DWORD PTR fez0$1$[rsp]
	movaps	xmm1, xmm15
	mulss	xmm1, DWORD PTR fey0$1$[rsp]
	mulss	xmm0, DWORD PTR [rcx+64]
	addss	xmm1, xmm0
	comiss	xmm5, xmm1
	ja	$LN359@prim
	xorps	xmm1, xmm3
	comiss	xmm1, xmm6
	ja	$LN359@prim
; File c:\program files (x86)\microsoft visual studio 12.0\vc\include\math.h

; 687  :     return (float)fabs(_X);

	movss	xmm6, DWORD PTR e0$3$[rsp]
	cvtps2pd xmm0, xmm6
; File c:\x-ray\stcop\rgs\src\xrcdb\xrcdb_box.cpp

; 169  : 			AXISTEST_Y02(e0.z, e0.x, fez0, fex0);

	movaps	xmm5, xmm6
	mulss	xmm6, xmm7
; File c:\program files (x86)\microsoft visual studio 12.0\vc\include\math.h

; 687  :     return (float)fabs(_X);

	andps	xmm0, xmm13
; File c:\x-ray\stcop\rgs\src\xrcdb\xrcdb_box.cpp

; 169  : 			AXISTEST_Y02(e0.z, e0.x, fez0, fex0);

	mulss	xmm5, xmm8
; File c:\program files (x86)\microsoft visual studio 12.0\vc\include\math.h

; 687  :     return (float)fabs(_X);

	cvtpd2ps xmm1, xmm0
; File c:\x-ray\stcop\rgs\src\xrcdb\xrcdb_box.cpp

; 169  : 			AXISTEST_Y02(e0.z, e0.x, fez0, fex0);

	movaps	xmm0, xmm12
	mulss	xmm0, DWORD PTR v0$1$[rsp]
	mulss	xmm12, xmm14
	subss	xmm6, xmm12
	subss	xmm5, xmm0
	comiss	xmm5, xmm6
	jbe	SHORT $LN27@prim
	movaps	xmm0, xmm6
	movaps	xmm6, xmm5
	movaps	xmm5, xmm0
$LN27@prim:
	movss	xmm12, DWORD PTR fez0$1$[rsp]
	movaps	xmm0, xmm15
	mulss	xmm0, xmm1
	mulss	xmm12, DWORD PTR [rcx+60]
	addss	xmm0, xmm12
	comiss	xmm5, xmm0
	ja	$LN359@prim
	xorps	xmm0, xmm3
	comiss	xmm0, xmm6
	ja	$LN359@prim

; 170  : 			AXISTEST_Z12(e0.y, e0.x, fey0, fex0);

	movss	xmm6, DWORD PTR e0$3$[rsp]
	movss	xmm12, DWORD PTR v1$1$[rsp]
	movaps	xmm5, xmm2
	mulss	xmm2, xmm14
	mulss	xmm5, xmm12
	movaps	xmm0, xmm6
	mulss	xmm0, xmm10
	mulss	xmm6, xmm9
	subss	xmm5, xmm0
	subss	xmm2, xmm6
	comiss	xmm5, xmm2
	jbe	SHORT $LN24@prim
	movaps	xmm0, xmm2
	movaps	xmm2, xmm5
	movaps	xmm5, xmm0
$LN24@prim:
	movss	xmm0, DWORD PTR fey0$1$[rsp]
	mulss	xmm1, DWORD PTR [rcx+64]
	mulss	xmm0, DWORD PTR [rcx+60]
	addss	xmm1, xmm0
	comiss	xmm5, xmm1
	ja	$LN359@prim
	xorps	xmm1, xmm3
	comiss	xmm1, xmm2
	ja	$LN359@prim
; File c:\program files (x86)\microsoft visual studio 12.0\vc\include\math.h

; 687  :     return (float)fabs(_X);

	movss	xmm5, DWORD PTR e1$2$[rsp]
	cvtps2pd xmm0, xmm4
	andps	xmm0, xmm13
	cvtpd2ps xmm0, xmm0
	cvtps2pd xmm1, xmm5
; File c:\x-ray\stcop\rgs\src\xrcdb\xrcdb_box.cpp

; 174  : 			AXISTEST_X01(e1.z, e1.y, fez1, fey1);

	movaps	xmm2, xmm5
	mulss	xmm2, xmm11
	mulss	xmm5, xmm9
; File c:\program files (x86)\microsoft visual studio 12.0\vc\include\math.h

; 687  :     return (float)fabs(_X);

	andps	xmm1, xmm13
	movss	DWORD PTR fey1$1$[rsp], xmm0
	cvtpd2ps xmm6, xmm1
; File c:\x-ray\stcop\rgs\src\xrcdb\xrcdb_box.cpp

; 174  : 			AXISTEST_X01(e1.z, e1.y, fez1, fey1);

	movaps	xmm0, xmm4
	mulss	xmm0, xmm8
	subss	xmm2, xmm0
	movaps	xmm0, xmm4
	mulss	xmm0, xmm7
	subss	xmm5, xmm0
	comiss	xmm2, xmm5
	jbe	SHORT $LN21@prim
	movaps	xmm0, xmm5
	movaps	xmm5, xmm2
	movaps	xmm2, xmm0
$LN21@prim:
	movaps	xmm1, xmm15
	movaps	xmm0, xmm6
	mulss	xmm1, DWORD PTR fey1$1$[rsp]
	mulss	xmm0, DWORD PTR [rcx+64]
	addss	xmm1, xmm0
	comiss	xmm2, xmm1
	ja	$LN359@prim
	xorps	xmm1, xmm3
	comiss	xmm1, xmm5
	ja	$LN359@prim
; File c:\program files (x86)\microsoft visual studio 12.0\vc\include\math.h

; 687  :     return (float)fabs(_X);

	movss	xmm5, DWORD PTR e1$3$[rsp]
	cvtps2pd xmm0, xmm5
; File c:\x-ray\stcop\rgs\src\xrcdb\xrcdb_box.cpp

; 176  : 			AXISTEST_Y02(e1.z, e1.x, fez1, fex1);

	movaps	xmm2, xmm5
	mulss	xmm5, xmm7
; File c:\program files (x86)\microsoft visual studio 12.0\vc\include\math.h

; 687  :     return (float)fabs(_X);

	andps	xmm0, xmm13
; File c:\x-ray\stcop\rgs\src\xrcdb\xrcdb_box.cpp

; 176  : 			AXISTEST_Y02(e1.z, e1.x, fez1, fex1);

	mulss	xmm2, xmm8
; File c:\program files (x86)\microsoft visual studio 12.0\vc\include\math.h

; 687  :     return (float)fabs(_X);

	cvtpd2ps xmm1, xmm0
; File c:\x-ray\stcop\rgs\src\xrcdb\xrcdb_box.cpp

; 176  : 			AXISTEST_Y02(e1.z, e1.x, fez1, fex1);

	movss	xmm0, DWORD PTR e1$2$[rsp]
	mulss	xmm0, DWORD PTR v0$1$[rsp]
	subss	xmm2, xmm0
	movss	xmm0, DWORD PTR e1$2$[rsp]
	mulss	xmm0, xmm14
	subss	xmm5, xmm0
	comiss	xmm2, xmm5
	jbe	SHORT $LN18@prim
	movaps	xmm0, xmm5
	movaps	xmm5, xmm2
	movaps	xmm2, xmm0
$LN18@prim:
	movss	xmm7, DWORD PTR [rcx+60]
	movaps	xmm0, xmm15
	mulss	xmm0, xmm1
	mulss	xmm6, xmm7
	addss	xmm0, xmm6
	comiss	xmm2, xmm0
	ja	$LN359@prim
	xorps	xmm0, xmm3
	comiss	xmm0, xmm5
	ja	$LN359@prim

; 177  : 			AXISTEST_Z0(e1.y, e1.x, fey1, fex1);

	movss	xmm5, DWORD PTR e1$3$[rsp]
	movaps	xmm2, xmm4
	mulss	xmm4, xmm12
	mulss	xmm2, DWORD PTR v0$1$[rsp]
	movaps	xmm0, xmm5
	mulss	xmm0, xmm11
	mulss	xmm5, xmm10
	subss	xmm2, xmm0
	subss	xmm4, xmm5
	comiss	xmm2, xmm4
	jbe	SHORT $LN15@prim
	movaps	xmm0, xmm4
	movaps	xmm4, xmm2
	movaps	xmm2, xmm0
$LN15@prim:
	movss	xmm0, DWORD PTR fey1$1$[rsp]
	mulss	xmm1, DWORD PTR [rcx+64]
	mulss	xmm0, xmm7
	addss	xmm1, xmm0
	comiss	xmm2, xmm1
	ja	$LN359@prim
	xorps	xmm1, xmm3
	comiss	xmm1, xmm4
	ja	$LN359@prim
; File c:\x-ray\stcop\rgs\src\xrcdb\opc_point.h

; 375  : 		inline_	Point			operator-(const Point& p)			const		{ return Point(x - p.x, y - p.y, z - p.z);			}

	movss	xmm2, DWORD PTR [rcx+76]
	movss	xmm7, DWORD PTR [rcx+80]
	movss	xmm6, DWORD PTR [rcx+72]
	subss	xmm2, DWORD PTR [rcx+100]
	subss	xmm7, DWORD PTR [rcx+104]
	subss	xmm6, DWORD PTR [rcx+96]
; File c:\x-ray\stcop\rgs\src\xrcdb\xrcdb_box.cpp

; 182  : 			AXISTEST_X2(e2.z, e2.y, fez2, fey2);

	movaps	xmm4, xmm7
	movaps	xmm5, xmm7
	mulss	xmm4, xmm11
	mulss	xmm5, xmm10
	movss	xmm11, DWORD PTR v1$3$[rsp]
; File c:\program files (x86)\microsoft visual studio 12.0\vc\include\math.h

; 687  :     return (float)fabs(_X);

	cvtps2pd xmm0, xmm2
	cvtps2pd xmm1, xmm7
	andps	xmm0, xmm13
	andps	xmm1, xmm13
	cvtpd2ps xmm12, xmm0
	cvtpd2ps xmm14, xmm1
; File c:\x-ray\stcop\rgs\src\xrcdb\xrcdb_box.cpp

; 182  : 			AXISTEST_X2(e2.z, e2.y, fez2, fey2);

	movaps	xmm0, xmm2
	mulss	xmm0, xmm8
	subss	xmm4, xmm0
	movaps	xmm0, xmm2
	mulss	xmm0, xmm11
	subss	xmm5, xmm0
	comiss	xmm4, xmm5
	jbe	SHORT $LN12@prim
	movaps	xmm0, xmm5
	movaps	xmm5, xmm4
	movaps	xmm4, xmm0
$LN12@prim:
	movaps	xmm0, xmm14
	movaps	xmm1, xmm12
	mulss	xmm0, DWORD PTR [rcx+64]
	mulss	xmm1, xmm15
	addss	xmm1, xmm0
	comiss	xmm4, xmm1
	ja	$LN359@prim
	xorps	xmm1, xmm3
	comiss	xmm1, xmm5
	ja	$LN359@prim
; File c:\program files (x86)\microsoft visual studio 12.0\vc\include\math.h

; 687  :     return (float)fabs(_X);

	cvtps2pd xmm0, xmm6
; File c:\x-ray\stcop\rgs\src\xrcdb\xrcdb_box.cpp

; 184  : 			AXISTEST_Y1(e2.z, e2.x, fez2, fex2);

	movaps	xmm5, xmm6
	movaps	xmm4, xmm6
	mulss	xmm5, xmm8
	movss	xmm8, DWORD PTR v1$1$[rsp]
	mulss	xmm4, xmm11
; File c:\program files (x86)\microsoft visual studio 12.0\vc\include\math.h

; 687  :     return (float)fabs(_X);

	andps	xmm0, xmm13
	cvtpd2ps xmm1, xmm0
; File c:\x-ray\stcop\rgs\src\xrcdb\xrcdb_box.cpp

; 184  : 			AXISTEST_Y1(e2.z, e2.x, fez2, fex2);

	movaps	xmm0, xmm7
	mulss	xmm7, xmm8
	mulss	xmm0, DWORD PTR v0$1$[rsp]
	subss	xmm4, xmm7
	subss	xmm5, xmm0
	comiss	xmm5, xmm4
	jbe	SHORT $LN9@prim
	movaps	xmm0, xmm4
	movaps	xmm4, xmm5
	movaps	xmm5, xmm0
$LN9@prim:
	movss	xmm7, DWORD PTR [rcx+60]
	movaps	xmm0, xmm1
	mulss	xmm0, xmm15
	mulss	xmm14, xmm7
	addss	xmm0, xmm14
	comiss	xmm5, xmm0
	ja	$LN359@prim
	xorps	xmm0, xmm3
	comiss	xmm0, xmm4
	ja	$LN359@prim

; 185  : 			AXISTEST_Z12(e2.y, e2.x, fey2, fex2);

	movaps	xmm4, xmm2
	mulss	xmm2, DWORD PTR v2$1$[rsp]
	movaps	xmm0, xmm6
	mulss	xmm4, xmm8
	mulss	xmm0, xmm10
	mulss	xmm6, xmm9
	subss	xmm4, xmm0
	subss	xmm2, xmm6
	comiss	xmm4, xmm2
	jbe	SHORT $LN6@prim
	movaps	xmm0, xmm2
	movaps	xmm2, xmm4
	movaps	xmm4, xmm0
$LN6@prim:
	mulss	xmm1, DWORD PTR [rcx+64]
	mulss	xmm12, xmm7
	addss	xmm1, xmm12
	comiss	xmm4, xmm1
	ja	$LN359@prim
	xorps	xmm1, xmm3
	comiss	xmm1, xmm2
	ja	$LN359@prim
; File c:\x-ray\stcop\rgs\src\xrcdb\xrcdb.cpp

; 186  : 	rd.push_back		(RESULT());

	xor	eax, eax
	mov	QWORD PTR [rsp+296], rbx
; File c:\x-ray\stcop\rgs\src\xrcdb\xrcdb_box.cpp

; 196  : 		RESULT& R	= dest->r_add();

	mov	rbx, QWORD PTR [rcx]
; File c:\x-ray\stcop\rgs\src\xrcdb\xrcdb.cpp

; 186  : 	rd.push_back		(RESULT());

	lea	rdx, QWORD PTR $T1[rsp]
	lea	rcx, QWORD PTR [rbx+16]
	mov	QWORD PTR $T1[rsp], rax
	mov	QWORD PTR $T1[rsp+8], rax
	mov	QWORD PTR $T1[rsp+16], rax
	mov	QWORD PTR $T1[rsp+24], rax
	mov	QWORD PTR $T1[rsp+32], rax
	mov	QWORD PTR $T1[rsp+40], rax
	mov	QWORD PTR $T1[rsp+48], rax
	call	?push_back@?$vector@URESULT@CDB@@V?$xalloc@URESULT@CDB@@@@@std@@QEAAX$$QEAURESULT@CDB@@@Z ; std::vector<CDB::RESULT,xalloc<CDB::RESULT> >::push_back
; File c:\program files (x86)\microsoft visual studio 12.0\vc\include\vector

; 170  : 		_Ptr += _Off;

	mov	rcx, QWORD PTR [rbx+24]
; File c:\x-ray\stcop\rgs\src\xrcdb\xrcdb_box.cpp

; 197  : 		R.id		= prim;

	mov	eax, DWORD PTR prim$[rsp]
	mov	rbx, QWORD PTR [rsp+296]
	mov	DWORD PTR [rcx-16], eax

; 198  : 		R.verts[0]	= v0;

	movsdx	xmm0, QWORD PTR [rbp+rsi*4]
	movsdx	QWORD PTR [rcx-56], xmm0
	mov	eax, DWORD PTR [rbp+rsi*4+8]
	mov	DWORD PTR [rcx-48], eax

; 199  : 		R.verts[1]	= v1;

	movsdx	xmm0, QWORD PTR [r15+r14*4]
	movsdx	QWORD PTR [rcx-44], xmm0
	mov	eax, DWORD PTR [r15+r14*4+8]
	mov	DWORD PTR [rcx-36], eax

; 200  : 		R.verts[2]	= v2;

	movsdx	xmm0, QWORD PTR [r13+r12*4]
	movsdx	QWORD PTR [rcx-32], xmm0
	mov	eax, DWORD PTR [r13+r12*4+8]
	mov	DWORD PTR [rcx-24], eax

; 201  : 		R.dummy		= T.dummy;

	mov	eax, DWORD PTR [rdi+12]
	mov	DWORD PTR [rcx-20], eax
$LN359@prim:
	movaps	xmm13, XMMWORD PTR [rsp+160]
	movaps	xmm6, XMMWORD PTR [rsp+272]
$LN357@prim:
	movaps	xmm8, XMMWORD PTR [rsp+240]
	movaps	xmm15, XMMWORD PTR [rsp+128]
$LN355@prim:
	movaps	xmm9, XMMWORD PTR [rsp+224]
	movaps	xmm10, XMMWORD PTR [rsp+208]
	movaps	xmm11, XMMWORD PTR [rsp+192]
$LN2@prim:

; 202  : 	}

	lea	r11, QWORD PTR [rsp+304]
	movaps	xmm7, XMMWORD PTR [r11-48]
	movaps	xmm12, XMMWORD PTR [r11-128]
	movaps	xmm14, XMMWORD PTR [r11-160]
	mov	rsp, r11
	pop	r15
	pop	r14
	pop	r13
	pop	r12
	pop	rdi
	pop	rsi
	pop	rbp
	ret	0
?_prim@?$box_collider@$00$0A@@@QEAAXK@Z ENDP		; box_collider<1,0>::_prim
_TEXT	ENDS
; Function compile flags: /Ogtpy
; File c:\x-ray\stcop\rgs\src\xrcdb\xrcdb_box.cpp
;	COMDAT ?_box@?$box_collider@$0A@$00@@QEAA_NAEBU?$_vector3@M@@0@Z
_TEXT	SEGMENT
this$ = 8
C$ = 16
E$ = 24
?_box@?$box_collider@$0A@$00@@QEAA_NAEBU?$_vector3@M@@0@Z PROC ; box_collider<0,1>::_box, COMDAT

; 107  : 		if( b_max.x < C.x-E.x )	return false;

	movss	xmm3, DWORD PTR [r8]
	movss	xmm0, DWORD PTR [rdx]
	subss	xmm0, xmm3
	comiss	xmm0, DWORD PTR [rcx+36]
	jbe	SHORT $LN6@box
$LN9@box:
	xor	al, al

; 113  : 		return true;
; 114  : 	};

	ret	0
$LN6@box:

; 108  : 		if( b_max.y < C.y-E.y )	return false;

	movss	xmm4, DWORD PTR [rdx+4]
	movss	xmm1, DWORD PTR [r8+4]
	movaps	xmm0, xmm4
	subss	xmm0, xmm1
	comiss	xmm0, DWORD PTR [rcx+40]
	ja	SHORT $LN9@box

; 109  : 		if( b_max.z < C.z-E.z )	return false;

	movss	xmm5, DWORD PTR [rdx+8]
	movss	xmm2, DWORD PTR [r8+8]
	movaps	xmm0, xmm5
	subss	xmm0, xmm2
	comiss	xmm0, DWORD PTR [rcx+44]
	ja	SHORT $LN9@box

; 110  : 		if( b_min.x > C.x+E.x )	return false;

	addss	xmm3, DWORD PTR [rdx]
	movss	xmm0, DWORD PTR [rcx+24]
	comiss	xmm0, xmm3
	ja	SHORT $LN9@box

; 111  : 		if( b_min.y > C.y+E.y )	return false;

	movss	xmm0, DWORD PTR [rcx+28]
	addss	xmm1, xmm4
	comiss	xmm0, xmm1
	ja	SHORT $LN9@box

; 112  : 		if( b_min.z > C.z+E.z )	return false;

	movss	xmm0, DWORD PTR [rcx+32]
	addss	xmm2, xmm5
	comiss	xmm0, xmm2
	setbe	al

; 113  : 		return true;
; 114  : 	};

	ret	0
?_box@?$box_collider@$0A@$00@@QEAA_NAEBU?$_vector3@M@@0@Z ENDP ; box_collider<0,1>::_box
_TEXT	ENDS
; Function compile flags: /Ogtpy
; File c:\x-ray\stcop\rgs\src\xrcdb\xrcdb_box.cpp
; File c:\x-ray\stcop\rgs\src\xrcdb\opc_point.h
; File c:\x-ray\stcop\rgs\src\xrcdb\xrcdb_box.cpp
; File c:\x-ray\stcop\rgs\src\xrcdb\opc_point.h
; File c:\x-ray\stcop\rgs\src\xrcdb\xrcdb_box.cpp
; File c:\x-ray\stcop\rgs\src\xrcdb\opc_point.h
; File c:\x-ray\stcop\rgs\src\xrcdb\xrcdb_box.cpp
; File c:\x-ray\stcop\rgs\src\xrcdb\xrcdb.cpp
; File c:\x-ray\stcop\rgs\src\xrcdb\xrcdb_box.cpp
; File c:\x-ray\stcop\rgs\src\xrcdb\xrcdb.cpp
; File c:\program files (x86)\microsoft visual studio 12.0\vc\include\vector
; File c:\x-ray\stcop\rgs\src\xrcdb\xrcdb_box.cpp
;	COMDAT ?_prim@?$box_collider@$0A@$00@@QEAAXK@Z
_TEXT	SEGMENT
$T1 = 32
this$ = 272
prim$ = 280
?_prim@?$box_collider@$0A@$00@@QEAAXK@Z PROC		; box_collider<0,1>::_prim, COMDAT

; 190  : 	{

$LN358:
	mov	rax, rsp
	mov	QWORD PTR [rax+24], rbp
	mov	QWORD PTR [rax+32], rsi
	mov	DWORD PTR [rax+16], edx
	push	rdi
	push	r12
	push	r13
	push	r14
	push	r15
	sub	rsp, 224				; 000000e0H

; 191  : 		TRI&	T	= tris[prim];
; 192  : 		Fvector& v0	= verts[ T.verts[0] ];	mLeafVerts[0].x = v0.x;	mLeafVerts[0].y = v0.y;	mLeafVerts[0].z = v0.z;

	mov	rbp, QWORD PTR [rcx+16]
	movaps	XMMWORD PTR [rax-88], xmm8
	movaps	XMMWORD PTR [rax-136], xmm11
	mov	edi, edx
	shl	rdi, 4
	add	rdi, QWORD PTR [rcx+8]
	movaps	XMMWORD PTR [rsp+112], xmm12
	movaps	XMMWORD PTR [rsp+96], xmm13
	mov	eax, DWORD PTR [rdi]
	lea	rsi, QWORD PTR [rax+rax*2]
	movss	xmm13, DWORD PTR [rbp+rsi*4]
	movss	DWORD PTR [rcx+72], xmm13
	mov	eax, DWORD PTR [rbp+rsi*4+4]
	mov	DWORD PTR [rcx+76], eax
	mov	eax, DWORD PTR [rbp+rsi*4+8]
	mov	DWORD PTR [rcx+80], eax

; 193  : 		Fvector& v1	= verts[ T.verts[1] ];	mLeafVerts[1].x = v1.x;	mLeafVerts[1].y = v1.y;	mLeafVerts[1].z = v1.z;

	mov	eax, DWORD PTR [rdi+4]
	mov	r15, QWORD PTR [rcx+16]
	lea	r14, QWORD PTR [rax+rax*2]
	movss	xmm12, DWORD PTR [r15+r14*4]
	movss	DWORD PTR [rcx+84], xmm12
	mov	eax, DWORD PTR [r15+r14*4+4]
	mov	DWORD PTR [rcx+88], eax
	mov	eax, DWORD PTR [r15+r14*4+8]
	mov	DWORD PTR [rcx+92], eax

; 194  : 		Fvector& v2	= verts[ T.verts[2] ];	mLeafVerts[2].x = v2.x;	mLeafVerts[2].y = v2.y;	mLeafVerts[2].z = v2.z;

	mov	r13, QWORD PTR [rcx+16]
	mov	eax, DWORD PTR [rdi+8]
	lea	r12, QWORD PTR [rax+rax*2]
	movss	xmm11, DWORD PTR [r13+r12*4]
	movss	DWORD PTR [rcx+96], xmm11
	mov	eax, DWORD PTR [r13+r12*4+4]
	mov	DWORD PTR [rcx+100], eax
	movss	xmm8, DWORD PTR [r13+r12*4+8]
	movss	DWORD PTR [rcx+104], xmm8

; 29   : 
; 30   : 	return false;
; 31   : }
; 32   : 
; 33   : //! TO BE DOCUMENTED
; 34   : #define AXISTEST_X01(a, b, fa, fb)							\
; 35   : 	min = a*v0.y - b*v0.z;									\
; 36   : 	max = a*v2.y - b*v2.z;									\
; 37   : 	if(min>max) {const float tmp=max; max=min; min=tmp;	}	\
; 38   : 	rad = fa * extents.y + fb * extents.z;					\
; 39   : 	if(min>rad || max<-rad) return false;
; 40   : 
; 41   : //! TO BE DOCUMENTED
; 42   : #define AXISTEST_X2(a, b, fa, fb)							\
; 43   : 	min = a*v0.y - b*v0.z;									\
; 44   : 	max = a*v1.y - b*v1.z;									\
; 45   : 	if(min>max) {const float tmp=max; max=min; min=tmp;	}	\
; 46   : 	rad = fa * extents.y + fb * extents.z;					\
; 47   : 	if(min>rad || max<-rad) return false;
; 48   : 
; 49   : //! TO BE DOCUMENTED
; 50   : #define AXISTEST_Y02(a, b, fa, fb)							\
; 51   : 	min = b*v0.z - a*v0.x;									\
; 52   : 	max = b*v2.z - a*v2.x;									\
; 53   : 	if(min>max) {const float tmp=max; max=min; min=tmp;	}	\
; 54   : 	rad = fa * extents.x + fb * extents.z;					\
; 55   : 	if(min>rad || max<-rad) return false;
; 56   : 
; 57   : //! TO BE DOCUMENTED
; 58   : #define AXISTEST_Y1(a, b, fa, fb)							\
; 59   : 	min = b*v0.z - a*v0.x;									\
; 60   : 	max = b*v1.z - a*v1.x;									\
; 61   : 	if(min>max) {const float tmp=max; max=min; min=tmp;	}	\
; 62   : 	rad = fa * extents.x + fb * extents.z;					\
; 63   : 	if(min>rad || max<-rad) return false;
; 64   : 
; 65   : //! TO BE DOCUMENTED
; 66   : #define AXISTEST_Z12(a, b, fa, fb)							\
; 67   : 	min = a*v1.x - b*v1.y;									\
; 68   : 	max = a*v2.x - b*v2.y;									\
; 69   : 	if(min>max) {const float tmp=max; max=min; min=tmp;	}	\
; 70   : 	rad = fa * extents.x + fb * extents.y;					\
; 71   : 	if(min>rad || max<-rad) return false;
; 72   : 
; 73   : //! TO BE DOCUMENTED
; 74   : #define AXISTEST_Z0(a, b, fa, fb)							\
; 75   : 	min = a*v0.x - b*v0.y;									\
; 76   : 	max = a*v1.x - b*v1.y;									\
; 77   : 	if(min>max) {const float tmp=max; max=min; min=tmp;	}	\
; 78   : 	rad = fa * extents.x + fb * extents.y;					\
; 79   : 	if(min>rad || max<-rad) return false;
; 80   : 
; 81   : 
; 82   : template <bool bClass3, bool bFirst>
; 83   : class box_collider
; 84   : {
; 85   : public:
; 86   : 	COLLIDER*		dest;
; 87   : 	TRI*			tris;
; 88   : 	Fvector*		verts;
; 89   : 	
; 90   : 	Fvector			b_min, b_max;
; 91   : 	Point			center, extents;
; 92   : 
; 93   : 	Point			mLeafVerts	[3];
; 94   : 	
; 95   : 	IC void			_init		(COLLIDER* CL, Fvector* V, TRI* T, const Fvector& C, const Fvector& E)
; 96   : 	{
; 97   : 		dest		= CL;
; 98   : 		verts		= V;
; 99   : 		tris		= T;
; 100  : 		center		= Point(C.x,C.y,C.z);
; 101  : 		extents		= Point(E.x,E.y,E.z);
; 102  : 		b_min.sub	(C,E);
; 103  : 		b_max.add	(C,E);
; 104  : 	}
; 105  : 	ICF	bool		_box		(const Fvector& C, const Fvector& E)
; 106  : 	{
; 107  : 		if( b_max.x < C.x-E.x )	return false;
; 108  : 		if( b_max.y < C.y-E.y )	return false;
; 109  : 		if( b_max.z < C.z-E.z )	return false;
; 110  : 		if( b_min.x > C.x+E.x )	return false;
; 111  : 		if( b_min.y > C.y+E.y )	return false;
; 112  : 		if( b_min.z > C.z+E.z )	return false;
; 113  : 		return true;
; 114  : 	};
; 115  : 	ICF	bool		_tri		()
; 116  : 	{
; 117  : 		// move everything so that the boxcenter is in (0,0,0) 
; 118  : 		Point v0, v1, v2;
; 119  : 		v0.x = mLeafVerts[0].x - center.x;

	movss	xmm0, DWORD PTR [rcx+48]
	subss	xmm13, xmm0

; 120  : 		v1.x = mLeafVerts[1].x - center.x;

	subss	xmm12, xmm0

; 121  : 		v2.x = mLeafVerts[2].x - center.x;

	subss	xmm11, xmm0

; 122  : 		
; 123  : 		// First, test overlap in the {x,y,z}-directions
; 124  : 		float min,max;
; 125  : 		// Find min, max of the triangle in x-direction, and test for overlap in X
; 126  : 		FINDMINMAX(v0.x, v1.x, v2.x, min, max);

	movaps	xmm2, xmm13
	movaps	xmm1, xmm13
	comiss	xmm13, xmm12
	jbe	SHORT $LN50@prim
	movaps	xmm1, xmm12
$LN50@prim:
	comiss	xmm12, xmm13
	jbe	SHORT $LN49@prim
	movaps	xmm2, xmm12
$LN49@prim:
	comiss	xmm1, xmm11
	jbe	SHORT $LN48@prim
	movaps	xmm1, xmm11
$LN48@prim:
	comiss	xmm11, xmm2
	jbe	SHORT $LN47@prim
	movaps	xmm2, xmm11
$LN47@prim:

; 127  : 		if(min>extents.x || max<-extents.x) return false;

	movss	xmm0, DWORD PTR [rcx+60]
	comiss	xmm1, xmm0
	ja	$LN2@prim
	movss	xmm4, DWORD PTR __xmm@80000000800000008000000080000000
	xorps	xmm0, xmm4
	comiss	xmm0, xmm2
	ja	$LN2@prim

; 128  : 		
; 129  : 		// Same for Y
; 130  : 		v0.y = mLeafVerts[0].y - center.y;

	movss	xmm0, DWORD PTR [rcx+52]

; 132  : 		v2.y = mLeafVerts[2].y - center.y;

	movss	xmm5, DWORD PTR [rcx+100]
	movaps	XMMWORD PTR [rsp+160], xmm9
	movaps	XMMWORD PTR [rsp+144], xmm10

; 128  : 		
; 129  : 		// Same for Y
; 130  : 		v0.y = mLeafVerts[0].y - center.y;

	movss	xmm10, DWORD PTR [rcx+76]

; 131  : 		v1.y = mLeafVerts[1].y - center.y;

	movss	xmm9, DWORD PTR [rcx+88]

; 132  : 		v2.y = mLeafVerts[2].y - center.y;

	subss	xmm5, xmm0
	subss	xmm10, xmm0
	subss	xmm9, xmm0

; 133  : 		
; 134  : 		FINDMINMAX(v0.y, v1.y, v2.y, min, max);

	movaps	xmm2, xmm10
	movaps	xmm1, xmm10
	comiss	xmm10, xmm9
	jbe	SHORT $LN44@prim
	movaps	xmm1, xmm9
$LN44@prim:
	comiss	xmm9, xmm10
	jbe	SHORT $LN43@prim
	movaps	xmm2, xmm9
$LN43@prim:
	comiss	xmm1, xmm5
	jbe	SHORT $LN42@prim
	movaps	xmm1, xmm5
$LN42@prim:
	comiss	xmm5, xmm2
	jbe	SHORT $LN41@prim
	movaps	xmm2, xmm5
$LN41@prim:

; 135  : 		if(min>extents.y || max<-extents.y) return false;

	movss	xmm0, DWORD PTR [rcx+64]
	comiss	xmm1, xmm0
	ja	$LN354@prim
	xorps	xmm0, xmm4
	comiss	xmm0, xmm2
	ja	$LN354@prim

; 136  : 		
; 137  : 		// Same for Z
; 138  : 		v0.z = mLeafVerts[0].z - center.z;

	movss	xmm0, DWORD PTR [rcx+56]
	movaps	XMMWORD PTR [rsp+208], xmm6

; 139  : 		v1.z = mLeafVerts[1].z - center.z;

	movss	xmm6, DWORD PTR [rcx+92]
	movaps	XMMWORD PTR [rsp+192], xmm7

; 136  : 		
; 137  : 		// Same for Z
; 138  : 		v0.z = mLeafVerts[0].z - center.z;

	movss	xmm7, DWORD PTR [rcx+80]

; 139  : 		v1.z = mLeafVerts[1].z - center.z;

	subss	xmm6, xmm0

; 140  : 		v2.z = mLeafVerts[2].z - center.z;

	subss	xmm8, xmm0
	subss	xmm7, xmm0

; 141  : 		
; 142  : 		FINDMINMAX(v0.z, v1.z, v2.z, min, max);

	comiss	xmm7, xmm6
	movaps	xmm2, xmm7
	movaps	xmm1, xmm7
	jbe	SHORT $LN38@prim
	movaps	xmm1, xmm6
$LN38@prim:
	comiss	xmm6, xmm7
	jbe	SHORT $LN37@prim
	movaps	xmm2, xmm6
$LN37@prim:
	comiss	xmm1, xmm8
	jbe	SHORT $LN36@prim
	movaps	xmm1, xmm8
$LN36@prim:
	comiss	xmm8, xmm2
	jbe	SHORT $LN35@prim
	movaps	xmm2, xmm8
$LN35@prim:

; 143  : 		if(min>extents.z || max<-extents.z) return false;

	movss	xmm0, DWORD PTR [rcx+68]
	comiss	xmm1, xmm0
	ja	$LN356@prim
	xorps	xmm0, xmm4
	comiss	xmm0, xmm2
	ja	$LN356@prim
; File c:\x-ray\stcop\rgs\src\xrcdb\opc_point.h

; 375  : 		inline_	Point			operator-(const Point& p)			const		{ return Point(x - p.x, y - p.y, z - p.z);			}

	subss	xmm11, xmm12
	subss	xmm5, xmm9
	movaps	xmm3, xmm12
	movaps	xmm2, xmm9
	movaps	xmm1, xmm6

; 393  : 		//! Operator for Point VecProd = Point ^ Point.
; 394  : 		ICF		Point			operator^(const Point& p)			const
; 395  : 								{
; 396  : 									return Point(
; 397  : 									y * p.z - z * p.y,
; 398  : 									z * p.x - x * p.z,
; 399  : 									x * p.y - y * p.x );

	movaps	xmm9, xmm11
	movaps	xmm0, xmm5

; 375  : 		inline_	Point			operator-(const Point& p)			const		{ return Point(x - p.x, y - p.y, z - p.z);			}

	subss	xmm1, xmm7
	subss	xmm8, xmm6
	subss	xmm3, xmm13

; 393  : 		//! Operator for Point VecProd = Point ^ Point.
; 394  : 		ICF		Point			operator^(const Point& p)			const
; 395  : 								{
; 396  : 									return Point(
; 397  : 									y * p.z - z * p.y,
; 398  : 									z * p.x - x * p.z,
; 399  : 									x * p.y - y * p.x );

	movaps	xmm12, xmm8
	mulss	xmm0, xmm1
	mulss	xmm9, xmm1
	mulss	xmm8, xmm3

; 375  : 		inline_	Point			operator-(const Point& p)			const		{ return Point(x - p.x, y - p.y, z - p.z);			}

	subss	xmm2, xmm10

; 393  : 		//! Operator for Point VecProd = Point ^ Point.
; 394  : 		ICF		Point			operator^(const Point& p)			const
; 395  : 								{
; 396  : 									return Point(
; 397  : 									y * p.z - z * p.y,
; 398  : 									z * p.x - x * p.z,
; 399  : 									x * p.y - y * p.x );

	subss	xmm9, xmm8
	mulss	xmm11, xmm2
	mulss	xmm12, xmm2
	mulss	xmm5, xmm3
	subss	xmm5, xmm11
	subss	xmm12, xmm0

; 370  : 		inline_	Point			operator-()							const		{ return Point(-x, -y, -z);							}

	movaps	xmm11, xmm9
	movaps	xmm1, xmm12
	movaps	xmm0, xmm5
	xorps	xmm11, xmm4
	xorps	xmm1, xmm4
	xorps	xmm0, xmm4

; 392  : 		inline_	float			operator|(const Point& p)			const		{ return x*p.x + y*p.y + z*p.z;						}

	mulss	xmm11, xmm10
	mulss	xmm1, xmm13
	mulss	xmm0, xmm7
	addss	xmm11, xmm1
	addss	xmm11, xmm0
	xorps	xmm8, xmm8
; File c:\x-ray\stcop\rgs\src\xrcdb\xrcdb_box.cpp

; 24   : 		if(((const float*)normal)[q]>0.0f)	{ ((float*)vmin)[q]=-((const float*)maxbox)[q]; ((float*)vmax)[q]=((const float*)maxbox)[q]; }

	comiss	xmm12, xmm8
	jbe	SHORT $LN94@prim
	movss	xmm2, DWORD PTR [rcx+60]
	movaps	xmm6, xmm2
	xorps	xmm6, xmm4

; 25   : 		else								{ ((float*)vmin)[q]=((const float*)maxbox)[q]; ((float*)vmax)[q]=-((const float*)maxbox)[q]; }

	jmp	SHORT $LN96@prim
$LN94@prim:
	movss	xmm6, DWORD PTR [rcx+60]
	movaps	xmm2, xmm6
	xorps	xmm2, xmm4
$LN96@prim:

; 24   : 		if(((const float*)normal)[q]>0.0f)	{ ((float*)vmin)[q]=-((const float*)maxbox)[q]; ((float*)vmax)[q]=((const float*)maxbox)[q]; }

	comiss	xmm9, xmm8
	jbe	SHORT $LN346@prim
	movss	xmm0, DWORD PTR [rcx+64]
	movaps	xmm1, xmm0
	xorps	xmm1, xmm4

; 25   : 		else								{ ((float*)vmin)[q]=((const float*)maxbox)[q]; ((float*)vmax)[q]=-((const float*)maxbox)[q]; }

	jmp	SHORT $LN347@prim
$LN346@prim:
	movss	xmm1, DWORD PTR [rcx+64]
	movaps	xmm0, xmm1
	xorps	xmm0, xmm4
$LN347@prim:

; 24   : 		if(((const float*)normal)[q]>0.0f)	{ ((float*)vmin)[q]=-((const float*)maxbox)[q]; ((float*)vmax)[q]=((const float*)maxbox)[q]; }

	comiss	xmm5, xmm8
	jbe	SHORT $LN349@prim
	movss	xmm3, DWORD PTR [rcx+68]
	movaps	xmm7, xmm3
	xorps	xmm7, xmm4

; 25   : 		else								{ ((float*)vmin)[q]=((const float*)maxbox)[q]; ((float*)vmax)[q]=-((const float*)maxbox)[q]; }

	jmp	SHORT $LN350@prim
$LN349@prim:
	movss	xmm7, DWORD PTR [rcx+68]
	movaps	xmm3, xmm7
	xorps	xmm3, xmm4
$LN350@prim:
; File c:\x-ray\stcop\rgs\src\xrcdb\opc_point.h

; 392  : 		inline_	float			operator|(const Point& p)			const		{ return x*p.x + y*p.y + z*p.z;						}

	mulss	xmm1, xmm9
	mulss	xmm6, xmm12
	mulss	xmm7, xmm5
	addss	xmm1, xmm6
	addss	xmm1, xmm7
; File c:\x-ray\stcop\rgs\src\xrcdb\xrcdb_box.cpp

; 27   : 	if((normal|vmin)+d>0.0f) return false;

	addss	xmm1, xmm11
	comiss	xmm1, xmm8
	ja	$LN356@prim
; File c:\x-ray\stcop\rgs\src\xrcdb\opc_point.h

; 392  : 		inline_	float			operator|(const Point& p)			const		{ return x*p.x + y*p.y + z*p.z;						}

	mulss	xmm0, xmm9
	mulss	xmm2, xmm12
	mulss	xmm3, xmm5
	addss	xmm0, xmm2
	addss	xmm0, xmm3
; File c:\x-ray\stcop\rgs\src\xrcdb\xrcdb_box.cpp

; 28   : 	if((normal|vmax)+d>=0.0f) return true;

	addss	xmm0, xmm11
	comiss	xmm0, xmm8
	jb	$LN356@prim
; File c:\x-ray\stcop\rgs\src\xrcdb\xrcdb.cpp

; 186  : 	rd.push_back		(RESULT());

	xor	eax, eax
	mov	QWORD PTR [rsp+272], rbx
; File c:\x-ray\stcop\rgs\src\xrcdb\xrcdb_box.cpp

; 196  : 		RESULT& R	= dest->r_add();

	mov	rbx, QWORD PTR [rcx]
; File c:\x-ray\stcop\rgs\src\xrcdb\xrcdb.cpp

; 186  : 	rd.push_back		(RESULT());

	lea	rdx, QWORD PTR $T1[rsp]
	lea	rcx, QWORD PTR [rbx+16]
	mov	QWORD PTR $T1[rsp], rax
	mov	QWORD PTR $T1[rsp+8], rax
	mov	QWORD PTR $T1[rsp+16], rax
	mov	QWORD PTR $T1[rsp+24], rax
	mov	QWORD PTR $T1[rsp+32], rax
	mov	QWORD PTR $T1[rsp+40], rax
	mov	QWORD PTR $T1[rsp+48], rax
	call	?push_back@?$vector@URESULT@CDB@@V?$xalloc@URESULT@CDB@@@@@std@@QEAAX$$QEAURESULT@CDB@@@Z ; std::vector<CDB::RESULT,xalloc<CDB::RESULT> >::push_back
; File c:\program files (x86)\microsoft visual studio 12.0\vc\include\vector

; 170  : 		_Ptr += _Off;

	mov	rcx, QWORD PTR [rbx+24]
; File c:\x-ray\stcop\rgs\src\xrcdb\xrcdb_box.cpp

; 197  : 		R.id		= prim;

	mov	eax, DWORD PTR prim$[rsp]
	mov	rbx, QWORD PTR [rsp+272]
	mov	DWORD PTR [rcx-16], eax

; 198  : 		R.verts[0]	= v0;

	movsdx	xmm0, QWORD PTR [rbp+rsi*4]
	movsdx	QWORD PTR [rcx-56], xmm0
	mov	eax, DWORD PTR [rbp+rsi*4+8]
	mov	DWORD PTR [rcx-48], eax

; 199  : 		R.verts[1]	= v1;

	movsdx	xmm0, QWORD PTR [r15+r14*4]
	movsdx	QWORD PTR [rcx-44], xmm0
	mov	eax, DWORD PTR [r15+r14*4+8]
	mov	DWORD PTR [rcx-36], eax

; 200  : 		R.verts[2]	= v2;

	movsdx	xmm0, QWORD PTR [r13+r12*4]
	movsdx	QWORD PTR [rcx-32], xmm0
	mov	eax, DWORD PTR [r13+r12*4+8]
	mov	DWORD PTR [rcx-24], eax

; 201  : 		R.dummy		= T.dummy;

	mov	eax, DWORD PTR [rdi+12]
	mov	DWORD PTR [rcx-20], eax
$LN356@prim:
	movaps	xmm7, XMMWORD PTR [rsp+192]
	movaps	xmm6, XMMWORD PTR [rsp+208]
$LN354@prim:
	movaps	xmm9, XMMWORD PTR [rsp+160]
	movaps	xmm10, XMMWORD PTR [rsp+144]
$LN2@prim:

; 202  : 	}

	lea	r11, QWORD PTR [rsp+224]
	mov	rbp, QWORD PTR [r11+64]
	mov	rsi, QWORD PTR [r11+72]
	movaps	xmm8, XMMWORD PTR [r11-48]
	movaps	xmm11, XMMWORD PTR [r11-96]
	movaps	xmm12, XMMWORD PTR [r11-112]
	movaps	xmm13, XMMWORD PTR [r11-128]
	mov	rsp, r11
	pop	r15
	pop	r14
	pop	r13
	pop	r12
	pop	rdi
	ret	0
?_prim@?$box_collider@$0A@$00@@QEAAXK@Z ENDP		; box_collider<0,1>::_prim
_TEXT	ENDS
; Function compile flags: /Ogtpy
; File c:\x-ray\stcop\rgs\src\xrcdb\xrcdb_box.cpp
;	COMDAT ?_box@?$box_collider@$0A@$0A@@@QEAA_NAEBU?$_vector3@M@@0@Z
_TEXT	SEGMENT
this$ = 8
C$ = 16
E$ = 24
?_box@?$box_collider@$0A@$0A@@@QEAA_NAEBU?$_vector3@M@@0@Z PROC ; box_collider<0,0>::_box, COMDAT

; 107  : 		if( b_max.x < C.x-E.x )	return false;

	movss	xmm3, DWORD PTR [r8]
	movss	xmm0, DWORD PTR [rdx]
	subss	xmm0, xmm3
	comiss	xmm0, DWORD PTR [rcx+36]
	jbe	SHORT $LN6@box
$LN9@box:
	xor	al, al

; 113  : 		return true;
; 114  : 	};

	ret	0
$LN6@box:

; 108  : 		if( b_max.y < C.y-E.y )	return false;

	movss	xmm4, DWORD PTR [rdx+4]
	movss	xmm1, DWORD PTR [r8+4]
	movaps	xmm0, xmm4
	subss	xmm0, xmm1
	comiss	xmm0, DWORD PTR [rcx+40]
	ja	SHORT $LN9@box

; 109  : 		if( b_max.z < C.z-E.z )	return false;

	movss	xmm5, DWORD PTR [rdx+8]
	movss	xmm2, DWORD PTR [r8+8]
	movaps	xmm0, xmm5
	subss	xmm0, xmm2
	comiss	xmm0, DWORD PTR [rcx+44]
	ja	SHORT $LN9@box

; 110  : 		if( b_min.x > C.x+E.x )	return false;

	addss	xmm3, DWORD PTR [rdx]
	movss	xmm0, DWORD PTR [rcx+24]
	comiss	xmm0, xmm3
	ja	SHORT $LN9@box

; 111  : 		if( b_min.y > C.y+E.y )	return false;

	movss	xmm0, DWORD PTR [rcx+28]
	addss	xmm1, xmm4
	comiss	xmm0, xmm1
	ja	SHORT $LN9@box

; 112  : 		if( b_min.z > C.z+E.z )	return false;

	movss	xmm0, DWORD PTR [rcx+32]
	addss	xmm2, xmm5
	comiss	xmm0, xmm2
	setbe	al

; 113  : 		return true;
; 114  : 	};

	ret	0
?_box@?$box_collider@$0A@$0A@@@QEAA_NAEBU?$_vector3@M@@0@Z ENDP ; box_collider<0,0>::_box
_TEXT	ENDS
; Function compile flags: /Ogtpy
; File c:\x-ray\stcop\rgs\src\xrcdb\xrcdb_box.cpp
; File c:\x-ray\stcop\rgs\src\xrcdb\opc_point.h
; File c:\x-ray\stcop\rgs\src\xrcdb\xrcdb_box.cpp
; File c:\x-ray\stcop\rgs\src\xrcdb\opc_point.h
; File c:\x-ray\stcop\rgs\src\xrcdb\xrcdb_box.cpp
; File c:\x-ray\stcop\rgs\src\xrcdb\opc_point.h
; File c:\x-ray\stcop\rgs\src\xrcdb\xrcdb_box.cpp
; File c:\x-ray\stcop\rgs\src\xrcdb\xrcdb.cpp
; File c:\x-ray\stcop\rgs\src\xrcdb\xrcdb_box.cpp
; File c:\x-ray\stcop\rgs\src\xrcdb\xrcdb.cpp
; File c:\program files (x86)\microsoft visual studio 12.0\vc\include\vector
; File c:\x-ray\stcop\rgs\src\xrcdb\xrcdb_box.cpp
;	COMDAT ?_prim@?$box_collider@$0A@$0A@@@QEAAXK@Z
_TEXT	SEGMENT
$T1 = 32
this$ = 272
prim$ = 280
?_prim@?$box_collider@$0A@$0A@@@QEAAXK@Z PROC		; box_collider<0,0>::_prim, COMDAT

; 190  : 	{

$LN358:
	mov	rax, rsp
	mov	QWORD PTR [rax+24], rbp
	mov	QWORD PTR [rax+32], rsi
	mov	DWORD PTR [rax+16], edx
	push	rdi
	push	r12
	push	r13
	push	r14
	push	r15
	sub	rsp, 224				; 000000e0H

; 191  : 		TRI&	T	= tris[prim];
; 192  : 		Fvector& v0	= verts[ T.verts[0] ];	mLeafVerts[0].x = v0.x;	mLeafVerts[0].y = v0.y;	mLeafVerts[0].z = v0.z;

	mov	rbp, QWORD PTR [rcx+16]
	movaps	XMMWORD PTR [rax-88], xmm8
	movaps	XMMWORD PTR [rax-136], xmm11
	mov	edi, edx
	shl	rdi, 4
	add	rdi, QWORD PTR [rcx+8]
	movaps	XMMWORD PTR [rsp+112], xmm12
	movaps	XMMWORD PTR [rsp+96], xmm13
	mov	eax, DWORD PTR [rdi]
	lea	rsi, QWORD PTR [rax+rax*2]
	movss	xmm13, DWORD PTR [rbp+rsi*4]
	movss	DWORD PTR [rcx+72], xmm13
	mov	eax, DWORD PTR [rbp+rsi*4+4]
	mov	DWORD PTR [rcx+76], eax
	mov	eax, DWORD PTR [rbp+rsi*4+8]
	mov	DWORD PTR [rcx+80], eax

; 193  : 		Fvector& v1	= verts[ T.verts[1] ];	mLeafVerts[1].x = v1.x;	mLeafVerts[1].y = v1.y;	mLeafVerts[1].z = v1.z;

	mov	eax, DWORD PTR [rdi+4]
	mov	r15, QWORD PTR [rcx+16]
	lea	r14, QWORD PTR [rax+rax*2]
	movss	xmm12, DWORD PTR [r15+r14*4]
	movss	DWORD PTR [rcx+84], xmm12
	mov	eax, DWORD PTR [r15+r14*4+4]
	mov	DWORD PTR [rcx+88], eax
	mov	eax, DWORD PTR [r15+r14*4+8]
	mov	DWORD PTR [rcx+92], eax

; 194  : 		Fvector& v2	= verts[ T.verts[2] ];	mLeafVerts[2].x = v2.x;	mLeafVerts[2].y = v2.y;	mLeafVerts[2].z = v2.z;

	mov	r13, QWORD PTR [rcx+16]
	mov	eax, DWORD PTR [rdi+8]
	lea	r12, QWORD PTR [rax+rax*2]
	movss	xmm11, DWORD PTR [r13+r12*4]
	movss	DWORD PTR [rcx+96], xmm11
	mov	eax, DWORD PTR [r13+r12*4+4]
	mov	DWORD PTR [rcx+100], eax
	movss	xmm8, DWORD PTR [r13+r12*4+8]
	movss	DWORD PTR [rcx+104], xmm8

; 29   : 
; 30   : 	return false;
; 31   : }
; 32   : 
; 33   : //! TO BE DOCUMENTED
; 34   : #define AXISTEST_X01(a, b, fa, fb)							\
; 35   : 	min = a*v0.y - b*v0.z;									\
; 36   : 	max = a*v2.y - b*v2.z;									\
; 37   : 	if(min>max) {const float tmp=max; max=min; min=tmp;	}	\
; 38   : 	rad = fa * extents.y + fb * extents.z;					\
; 39   : 	if(min>rad || max<-rad) return false;
; 40   : 
; 41   : //! TO BE DOCUMENTED
; 42   : #define AXISTEST_X2(a, b, fa, fb)							\
; 43   : 	min = a*v0.y - b*v0.z;									\
; 44   : 	max = a*v1.y - b*v1.z;									\
; 45   : 	if(min>max) {const float tmp=max; max=min; min=tmp;	}	\
; 46   : 	rad = fa * extents.y + fb * extents.z;					\
; 47   : 	if(min>rad || max<-rad) return false;
; 48   : 
; 49   : //! TO BE DOCUMENTED
; 50   : #define AXISTEST_Y02(a, b, fa, fb)							\
; 51   : 	min = b*v0.z - a*v0.x;									\
; 52   : 	max = b*v2.z - a*v2.x;									\
; 53   : 	if(min>max) {const float tmp=max; max=min; min=tmp;	}	\
; 54   : 	rad = fa * extents.x + fb * extents.z;					\
; 55   : 	if(min>rad || max<-rad) return false;
; 56   : 
; 57   : //! TO BE DOCUMENTED
; 58   : #define AXISTEST_Y1(a, b, fa, fb)							\
; 59   : 	min = b*v0.z - a*v0.x;									\
; 60   : 	max = b*v1.z - a*v1.x;									\
; 61   : 	if(min>max) {const float tmp=max; max=min; min=tmp;	}	\
; 62   : 	rad = fa * extents.x + fb * extents.z;					\
; 63   : 	if(min>rad || max<-rad) return false;
; 64   : 
; 65   : //! TO BE DOCUMENTED
; 66   : #define AXISTEST_Z12(a, b, fa, fb)							\
; 67   : 	min = a*v1.x - b*v1.y;									\
; 68   : 	max = a*v2.x - b*v2.y;									\
; 69   : 	if(min>max) {const float tmp=max; max=min; min=tmp;	}	\
; 70   : 	rad = fa * extents.x + fb * extents.y;					\
; 71   : 	if(min>rad || max<-rad) return false;
; 72   : 
; 73   : //! TO BE DOCUMENTED
; 74   : #define AXISTEST_Z0(a, b, fa, fb)							\
; 75   : 	min = a*v0.x - b*v0.y;									\
; 76   : 	max = a*v1.x - b*v1.y;									\
; 77   : 	if(min>max) {const float tmp=max; max=min; min=tmp;	}	\
; 78   : 	rad = fa * extents.x + fb * extents.y;					\
; 79   : 	if(min>rad || max<-rad) return false;
; 80   : 
; 81   : 
; 82   : template <bool bClass3, bool bFirst>
; 83   : class box_collider
; 84   : {
; 85   : public:
; 86   : 	COLLIDER*		dest;
; 87   : 	TRI*			tris;
; 88   : 	Fvector*		verts;
; 89   : 	
; 90   : 	Fvector			b_min, b_max;
; 91   : 	Point			center, extents;
; 92   : 
; 93   : 	Point			mLeafVerts	[3];
; 94   : 	
; 95   : 	IC void			_init		(COLLIDER* CL, Fvector* V, TRI* T, const Fvector& C, const Fvector& E)
; 96   : 	{
; 97   : 		dest		= CL;
; 98   : 		verts		= V;
; 99   : 		tris		= T;
; 100  : 		center		= Point(C.x,C.y,C.z);
; 101  : 		extents		= Point(E.x,E.y,E.z);
; 102  : 		b_min.sub	(C,E);
; 103  : 		b_max.add	(C,E);
; 104  : 	}
; 105  : 	ICF	bool		_box		(const Fvector& C, const Fvector& E)
; 106  : 	{
; 107  : 		if( b_max.x < C.x-E.x )	return false;
; 108  : 		if( b_max.y < C.y-E.y )	return false;
; 109  : 		if( b_max.z < C.z-E.z )	return false;
; 110  : 		if( b_min.x > C.x+E.x )	return false;
; 111  : 		if( b_min.y > C.y+E.y )	return false;
; 112  : 		if( b_min.z > C.z+E.z )	return false;
; 113  : 		return true;
; 114  : 	};
; 115  : 	ICF	bool		_tri		()
; 116  : 	{
; 117  : 		// move everything so that the boxcenter is in (0,0,0) 
; 118  : 		Point v0, v1, v2;
; 119  : 		v0.x = mLeafVerts[0].x - center.x;

	movss	xmm0, DWORD PTR [rcx+48]
	subss	xmm13, xmm0

; 120  : 		v1.x = mLeafVerts[1].x - center.x;

	subss	xmm12, xmm0

; 121  : 		v2.x = mLeafVerts[2].x - center.x;

	subss	xmm11, xmm0

; 122  : 		
; 123  : 		// First, test overlap in the {x,y,z}-directions
; 124  : 		float min,max;
; 125  : 		// Find min, max of the triangle in x-direction, and test for overlap in X
; 126  : 		FINDMINMAX(v0.x, v1.x, v2.x, min, max);

	movaps	xmm2, xmm13
	movaps	xmm1, xmm13
	comiss	xmm13, xmm12
	jbe	SHORT $LN50@prim
	movaps	xmm1, xmm12
$LN50@prim:
	comiss	xmm12, xmm13
	jbe	SHORT $LN49@prim
	movaps	xmm2, xmm12
$LN49@prim:
	comiss	xmm1, xmm11
	jbe	SHORT $LN48@prim
	movaps	xmm1, xmm11
$LN48@prim:
	comiss	xmm11, xmm2
	jbe	SHORT $LN47@prim
	movaps	xmm2, xmm11
$LN47@prim:

; 127  : 		if(min>extents.x || max<-extents.x) return false;

	movss	xmm0, DWORD PTR [rcx+60]
	comiss	xmm1, xmm0
	ja	$LN2@prim
	movss	xmm4, DWORD PTR __xmm@80000000800000008000000080000000
	xorps	xmm0, xmm4
	comiss	xmm0, xmm2
	ja	$LN2@prim

; 128  : 		
; 129  : 		// Same for Y
; 130  : 		v0.y = mLeafVerts[0].y - center.y;

	movss	xmm0, DWORD PTR [rcx+52]

; 132  : 		v2.y = mLeafVerts[2].y - center.y;

	movss	xmm5, DWORD PTR [rcx+100]
	movaps	XMMWORD PTR [rsp+160], xmm9
	movaps	XMMWORD PTR [rsp+144], xmm10

; 128  : 		
; 129  : 		// Same for Y
; 130  : 		v0.y = mLeafVerts[0].y - center.y;

	movss	xmm10, DWORD PTR [rcx+76]

; 131  : 		v1.y = mLeafVerts[1].y - center.y;

	movss	xmm9, DWORD PTR [rcx+88]

; 132  : 		v2.y = mLeafVerts[2].y - center.y;

	subss	xmm5, xmm0
	subss	xmm10, xmm0
	subss	xmm9, xmm0

; 133  : 		
; 134  : 		FINDMINMAX(v0.y, v1.y, v2.y, min, max);

	movaps	xmm2, xmm10
	movaps	xmm1, xmm10
	comiss	xmm10, xmm9
	jbe	SHORT $LN44@prim
	movaps	xmm1, xmm9
$LN44@prim:
	comiss	xmm9, xmm10
	jbe	SHORT $LN43@prim
	movaps	xmm2, xmm9
$LN43@prim:
	comiss	xmm1, xmm5
	jbe	SHORT $LN42@prim
	movaps	xmm1, xmm5
$LN42@prim:
	comiss	xmm5, xmm2
	jbe	SHORT $LN41@prim
	movaps	xmm2, xmm5
$LN41@prim:

; 135  : 		if(min>extents.y || max<-extents.y) return false;

	movss	xmm0, DWORD PTR [rcx+64]
	comiss	xmm1, xmm0
	ja	$LN354@prim
	xorps	xmm0, xmm4
	comiss	xmm0, xmm2
	ja	$LN354@prim

; 136  : 		
; 137  : 		// Same for Z
; 138  : 		v0.z = mLeafVerts[0].z - center.z;

	movss	xmm0, DWORD PTR [rcx+56]
	movaps	XMMWORD PTR [rsp+208], xmm6

; 139  : 		v1.z = mLeafVerts[1].z - center.z;

	movss	xmm6, DWORD PTR [rcx+92]
	movaps	XMMWORD PTR [rsp+192], xmm7

; 136  : 		
; 137  : 		// Same for Z
; 138  : 		v0.z = mLeafVerts[0].z - center.z;

	movss	xmm7, DWORD PTR [rcx+80]

; 139  : 		v1.z = mLeafVerts[1].z - center.z;

	subss	xmm6, xmm0

; 140  : 		v2.z = mLeafVerts[2].z - center.z;

	subss	xmm8, xmm0
	subss	xmm7, xmm0

; 141  : 		
; 142  : 		FINDMINMAX(v0.z, v1.z, v2.z, min, max);

	comiss	xmm7, xmm6
	movaps	xmm2, xmm7
	movaps	xmm1, xmm7
	jbe	SHORT $LN38@prim
	movaps	xmm1, xmm6
$LN38@prim:
	comiss	xmm6, xmm7
	jbe	SHORT $LN37@prim
	movaps	xmm2, xmm6
$LN37@prim:
	comiss	xmm1, xmm8
	jbe	SHORT $LN36@prim
	movaps	xmm1, xmm8
$LN36@prim:
	comiss	xmm8, xmm2
	jbe	SHORT $LN35@prim
	movaps	xmm2, xmm8
$LN35@prim:

; 143  : 		if(min>extents.z || max<-extents.z) return false;

	movss	xmm0, DWORD PTR [rcx+68]
	comiss	xmm1, xmm0
	ja	$LN356@prim
	xorps	xmm0, xmm4
	comiss	xmm0, xmm2
	ja	$LN356@prim
; File c:\x-ray\stcop\rgs\src\xrcdb\opc_point.h

; 375  : 		inline_	Point			operator-(const Point& p)			const		{ return Point(x - p.x, y - p.y, z - p.z);			}

	subss	xmm11, xmm12
	subss	xmm5, xmm9
	movaps	xmm3, xmm12
	movaps	xmm2, xmm9
	movaps	xmm1, xmm6

; 393  : 		//! Operator for Point VecProd = Point ^ Point.
; 394  : 		ICF		Point			operator^(const Point& p)			const
; 395  : 								{
; 396  : 									return Point(
; 397  : 									y * p.z - z * p.y,
; 398  : 									z * p.x - x * p.z,
; 399  : 									x * p.y - y * p.x );

	movaps	xmm9, xmm11
	movaps	xmm0, xmm5

; 375  : 		inline_	Point			operator-(const Point& p)			const		{ return Point(x - p.x, y - p.y, z - p.z);			}

	subss	xmm1, xmm7
	subss	xmm8, xmm6
	subss	xmm3, xmm13

; 393  : 		//! Operator for Point VecProd = Point ^ Point.
; 394  : 		ICF		Point			operator^(const Point& p)			const
; 395  : 								{
; 396  : 									return Point(
; 397  : 									y * p.z - z * p.y,
; 398  : 									z * p.x - x * p.z,
; 399  : 									x * p.y - y * p.x );

	movaps	xmm12, xmm8
	mulss	xmm0, xmm1
	mulss	xmm9, xmm1
	mulss	xmm8, xmm3

; 375  : 		inline_	Point			operator-(const Point& p)			const		{ return Point(x - p.x, y - p.y, z - p.z);			}

	subss	xmm2, xmm10

; 393  : 		//! Operator for Point VecProd = Point ^ Point.
; 394  : 		ICF		Point			operator^(const Point& p)			const
; 395  : 								{
; 396  : 									return Point(
; 397  : 									y * p.z - z * p.y,
; 398  : 									z * p.x - x * p.z,
; 399  : 									x * p.y - y * p.x );

	subss	xmm9, xmm8
	mulss	xmm11, xmm2
	mulss	xmm12, xmm2
	mulss	xmm5, xmm3
	subss	xmm5, xmm11
	subss	xmm12, xmm0

; 370  : 		inline_	Point			operator-()							const		{ return Point(-x, -y, -z);							}

	movaps	xmm11, xmm9
	movaps	xmm1, xmm12
	movaps	xmm0, xmm5
	xorps	xmm11, xmm4
	xorps	xmm1, xmm4
	xorps	xmm0, xmm4

; 392  : 		inline_	float			operator|(const Point& p)			const		{ return x*p.x + y*p.y + z*p.z;						}

	mulss	xmm11, xmm10
	mulss	xmm1, xmm13
	mulss	xmm0, xmm7
	addss	xmm11, xmm1
	addss	xmm11, xmm0
	xorps	xmm8, xmm8
; File c:\x-ray\stcop\rgs\src\xrcdb\xrcdb_box.cpp

; 24   : 		if(((const float*)normal)[q]>0.0f)	{ ((float*)vmin)[q]=-((const float*)maxbox)[q]; ((float*)vmax)[q]=((const float*)maxbox)[q]; }

	comiss	xmm12, xmm8
	jbe	SHORT $LN94@prim
	movss	xmm2, DWORD PTR [rcx+60]
	movaps	xmm6, xmm2
	xorps	xmm6, xmm4

; 25   : 		else								{ ((float*)vmin)[q]=((const float*)maxbox)[q]; ((float*)vmax)[q]=-((const float*)maxbox)[q]; }

	jmp	SHORT $LN96@prim
$LN94@prim:
	movss	xmm6, DWORD PTR [rcx+60]
	movaps	xmm2, xmm6
	xorps	xmm2, xmm4
$LN96@prim:

; 24   : 		if(((const float*)normal)[q]>0.0f)	{ ((float*)vmin)[q]=-((const float*)maxbox)[q]; ((float*)vmax)[q]=((const float*)maxbox)[q]; }

	comiss	xmm9, xmm8
	jbe	SHORT $LN346@prim
	movss	xmm0, DWORD PTR [rcx+64]
	movaps	xmm1, xmm0
	xorps	xmm1, xmm4

; 25   : 		else								{ ((float*)vmin)[q]=((const float*)maxbox)[q]; ((float*)vmax)[q]=-((const float*)maxbox)[q]; }

	jmp	SHORT $LN347@prim
$LN346@prim:
	movss	xmm1, DWORD PTR [rcx+64]
	movaps	xmm0, xmm1
	xorps	xmm0, xmm4
$LN347@prim:

; 24   : 		if(((const float*)normal)[q]>0.0f)	{ ((float*)vmin)[q]=-((const float*)maxbox)[q]; ((float*)vmax)[q]=((const float*)maxbox)[q]; }

	comiss	xmm5, xmm8
	jbe	SHORT $LN349@prim
	movss	xmm3, DWORD PTR [rcx+68]
	movaps	xmm7, xmm3
	xorps	xmm7, xmm4

; 25   : 		else								{ ((float*)vmin)[q]=((const float*)maxbox)[q]; ((float*)vmax)[q]=-((const float*)maxbox)[q]; }

	jmp	SHORT $LN350@prim
$LN349@prim:
	movss	xmm7, DWORD PTR [rcx+68]
	movaps	xmm3, xmm7
	xorps	xmm3, xmm4
$LN350@prim:
; File c:\x-ray\stcop\rgs\src\xrcdb\opc_point.h

; 392  : 		inline_	float			operator|(const Point& p)			const		{ return x*p.x + y*p.y + z*p.z;						}

	mulss	xmm1, xmm9
	mulss	xmm6, xmm12
	mulss	xmm7, xmm5
	addss	xmm1, xmm6
	addss	xmm1, xmm7
; File c:\x-ray\stcop\rgs\src\xrcdb\xrcdb_box.cpp

; 27   : 	if((normal|vmin)+d>0.0f) return false;

	addss	xmm1, xmm11
	comiss	xmm1, xmm8
	ja	$LN356@prim
; File c:\x-ray\stcop\rgs\src\xrcdb\opc_point.h

; 392  : 		inline_	float			operator|(const Point& p)			const		{ return x*p.x + y*p.y + z*p.z;						}

	mulss	xmm0, xmm9
	mulss	xmm2, xmm12
	mulss	xmm3, xmm5
	addss	xmm0, xmm2
	addss	xmm0, xmm3
; File c:\x-ray\stcop\rgs\src\xrcdb\xrcdb_box.cpp

; 28   : 	if((normal|vmax)+d>=0.0f) return true;

	addss	xmm0, xmm11
	comiss	xmm0, xmm8
	jb	$LN356@prim
; File c:\x-ray\stcop\rgs\src\xrcdb\xrcdb.cpp

; 186  : 	rd.push_back		(RESULT());

	xor	eax, eax
	mov	QWORD PTR [rsp+272], rbx
; File c:\x-ray\stcop\rgs\src\xrcdb\xrcdb_box.cpp

; 196  : 		RESULT& R	= dest->r_add();

	mov	rbx, QWORD PTR [rcx]
; File c:\x-ray\stcop\rgs\src\xrcdb\xrcdb.cpp

; 186  : 	rd.push_back		(RESULT());

	lea	rdx, QWORD PTR $T1[rsp]
	lea	rcx, QWORD PTR [rbx+16]
	mov	QWORD PTR $T1[rsp], rax
	mov	QWORD PTR $T1[rsp+8], rax
	mov	QWORD PTR $T1[rsp+16], rax
	mov	QWORD PTR $T1[rsp+24], rax
	mov	QWORD PTR $T1[rsp+32], rax
	mov	QWORD PTR $T1[rsp+40], rax
	mov	QWORD PTR $T1[rsp+48], rax
	call	?push_back@?$vector@URESULT@CDB@@V?$xalloc@URESULT@CDB@@@@@std@@QEAAX$$QEAURESULT@CDB@@@Z ; std::vector<CDB::RESULT,xalloc<CDB::RESULT> >::push_back
; File c:\program files (x86)\microsoft visual studio 12.0\vc\include\vector

; 170  : 		_Ptr += _Off;

	mov	rcx, QWORD PTR [rbx+24]
; File c:\x-ray\stcop\rgs\src\xrcdb\xrcdb_box.cpp

; 197  : 		R.id		= prim;

	mov	eax, DWORD PTR prim$[rsp]
	mov	rbx, QWORD PTR [rsp+272]
	mov	DWORD PTR [rcx-16], eax

; 198  : 		R.verts[0]	= v0;

	movsdx	xmm0, QWORD PTR [rbp+rsi*4]
	movsdx	QWORD PTR [rcx-56], xmm0
	mov	eax, DWORD PTR [rbp+rsi*4+8]
	mov	DWORD PTR [rcx-48], eax

; 199  : 		R.verts[1]	= v1;

	movsdx	xmm0, QWORD PTR [r15+r14*4]
	movsdx	QWORD PTR [rcx-44], xmm0
	mov	eax, DWORD PTR [r15+r14*4+8]
	mov	DWORD PTR [rcx-36], eax

; 200  : 		R.verts[2]	= v2;

	movsdx	xmm0, QWORD PTR [r13+r12*4]
	movsdx	QWORD PTR [rcx-32], xmm0
	mov	eax, DWORD PTR [r13+r12*4+8]
	mov	DWORD PTR [rcx-24], eax

; 201  : 		R.dummy		= T.dummy;

	mov	eax, DWORD PTR [rdi+12]
	mov	DWORD PTR [rcx-20], eax
$LN356@prim:
	movaps	xmm7, XMMWORD PTR [rsp+192]
	movaps	xmm6, XMMWORD PTR [rsp+208]
$LN354@prim:
	movaps	xmm9, XMMWORD PTR [rsp+160]
	movaps	xmm10, XMMWORD PTR [rsp+144]
$LN2@prim:

; 202  : 	}

	lea	r11, QWORD PTR [rsp+224]
	mov	rbp, QWORD PTR [r11+64]
	mov	rsi, QWORD PTR [r11+72]
	movaps	xmm8, XMMWORD PTR [r11-48]
	movaps	xmm11, XMMWORD PTR [r11-96]
	movaps	xmm12, XMMWORD PTR [r11-112]
	movaps	xmm13, XMMWORD PTR [r11-128]
	mov	rsp, r11
	pop	r15
	pop	r14
	pop	r13
	pop	r12
	pop	rdi
	ret	0
?_prim@?$box_collider@$0A@$0A@@@QEAAXK@Z ENDP		; box_collider<0,0>::_prim
_TEXT	ENDS
; Function compile flags: /Ogtpy
; File c:\x-ray\stcop\rgs\src\xrcdb\xrcdb_box.cpp
; File c:\x-ray\stcop\rgs\src\xrcdb\opc_point.h
; File c:\x-ray\stcop\rgs\src\xrcdb\xrcdb_box.cpp
; File c:\x-ray\stcop\rgs\src\xrcdb\opc_point.h
; File c:\x-ray\stcop\rgs\src\xrcdb\xrcdb_box.cpp
; File c:\x-ray\stcop\rgs\src\xrcdb\opc_point.h
; File c:\x-ray\stcop\rgs\src\xrcdb\xrcdb_box.cpp
; File c:\x-ray\stcop\rgs\src\xrcdb\opc_point.h
; File c:\x-ray\stcop\rgs\src\xrcdb\xrcdb_box.cpp
; File c:\program files (x86)\microsoft visual studio 12.0\vc\include\math.h
; File c:\x-ray\stcop\rgs\src\xrcdb\xrcdb_box.cpp
; File c:\program files (x86)\microsoft visual studio 12.0\vc\include\math.h
; File c:\x-ray\stcop\rgs\src\xrcdb\xrcdb_box.cpp
; File c:\program files (x86)\microsoft visual studio 12.0\vc\include\math.h
; File c:\x-ray\stcop\rgs\src\xrcdb\xrcdb_box.cpp
; File c:\program files (x86)\microsoft visual studio 12.0\vc\include\math.h
; File c:\x-ray\stcop\rgs\src\xrcdb\xrcdb_box.cpp
; File c:\program files (x86)\microsoft visual studio 12.0\vc\include\math.h
; File c:\x-ray\stcop\rgs\src\xrcdb\xrcdb_box.cpp
; File c:\program files (x86)\microsoft visual studio 12.0\vc\include\math.h
; File c:\x-ray\stcop\rgs\src\xrcdb\xrcdb_box.cpp
; File c:\program files (x86)\microsoft visual studio 12.0\vc\include\math.h
; File c:\x-ray\stcop\rgs\src\xrcdb\xrcdb_box.cpp
; File c:\program files (x86)\microsoft visual studio 12.0\vc\include\math.h
; File c:\x-ray\stcop\rgs\src\xrcdb\xrcdb_box.cpp
; File c:\program files (x86)\microsoft visual studio 12.0\vc\include\math.h
; File c:\x-ray\stcop\rgs\src\xrcdb\xrcdb_box.cpp
; File c:\program files (x86)\microsoft visual studio 12.0\vc\include\math.h
; File c:\x-ray\stcop\rgs\src\xrcdb\xrcdb_box.cpp
; File c:\program files (x86)\microsoft visual studio 12.0\vc\include\math.h
; File c:\x-ray\stcop\rgs\src\xrcdb\xrcdb_box.cpp
; File c:\program files (x86)\microsoft visual studio 12.0\vc\include\math.h
; File c:\x-ray\stcop\rgs\src\xrcdb\xrcdb_box.cpp
; File c:\program files (x86)\microsoft visual studio 12.0\vc\include\math.h
; File c:\x-ray\stcop\rgs\src\xrcdb\xrcdb_box.cpp
; File c:\x-ray\stcop\rgs\src\xrcdb\opc_point.h
; File c:\x-ray\stcop\rgs\src\xrcdb\xrcdb_box.cpp
; File c:\program files (x86)\microsoft visual studio 12.0\vc\include\math.h
; File c:\x-ray\stcop\rgs\src\xrcdb\xrcdb_box.cpp
; File c:\program files (x86)\microsoft visual studio 12.0\vc\include\math.h
; File c:\x-ray\stcop\rgs\src\xrcdb\xrcdb_box.cpp
; File c:\program files (x86)\microsoft visual studio 12.0\vc\include\math.h
; File c:\x-ray\stcop\rgs\src\xrcdb\xrcdb_box.cpp
;	COMDAT ?_tri@?$box_collider@$00$00@@QEAA_NXZ
_TEXT	SEGMENT
fex0$1$ = 0
d$1$ = 0
e1$3$ = 4
e1$2$ = 8
v0$2$ = 12
e0$3$ = 16
vmin$3$ = 20
vmin$1$ = 24
vmax$3$ = 28
v1$3$ = 32
normal$3$ = 224
fez2$1$ = 224
fez1$1$ = 224
max$1$ = 224
min$2$ = 224
this$ = 224
normal$2$ = 232
fey2$1$ = 232
fey1$1$ = 232
fez0$1$ = 232
normal$1$ = 240
fex2$1$ = 240
fex1$1$ = 240
fey0$1$ = 240
e0$2$ = 248
?_tri@?$box_collider@$00$00@@QEAA_NXZ PROC		; box_collider<1,1>::_tri, COMDAT

; 116  : 	{

$LN341:
	mov	rax, rsp
	sub	rsp, 216				; 000000d8H

; 117  : 		// move everything so that the boxcenter is in (0,0,0) 
; 118  : 		Point v0, v1, v2;
; 119  : 		v0.x = mLeafVerts[0].x - center.x;

	movss	xmm0, DWORD PTR [rcx+48]
	movaps	XMMWORD PTR [rax-72], xmm9

; 120  : 		v1.x = mLeafVerts[1].x - center.x;

	movss	xmm9, DWORD PTR [rcx+84]
	movaps	XMMWORD PTR [rax-88], xmm10
	movaps	XMMWORD PTR [rax-104], xmm11
	movaps	XMMWORD PTR [rax-120], xmm12
	movss	xmm12, DWORD PTR [rcx+72]

; 121  : 		v2.x = mLeafVerts[2].x - center.x;

	movss	xmm10, DWORD PTR [rcx+96]
	subss	xmm9, xmm0
	subss	xmm12, xmm0
	subss	xmm10, xmm0

; 122  : 		
; 123  : 		// First, test overlap in the {x,y,z}-directions
; 124  : 		float min,max;
; 125  : 		// Find min, max of the triangle in x-direction, and test for overlap in X
; 126  : 		FINDMINMAX(v0.x, v1.x, v2.x, min, max);

	movaps	xmm1, xmm12
	movaps	xmm0, xmm12
	comiss	xmm12, xmm9
	jbe	SHORT $LN47@tri
	movaps	xmm0, xmm9
$LN47@tri:
	comiss	xmm9, xmm12
	jbe	SHORT $LN46@tri
	movaps	xmm1, xmm9
$LN46@tri:
	comiss	xmm0, xmm10
	jbe	SHORT $LN45@tri
	movaps	xmm0, xmm10
$LN45@tri:
	comiss	xmm10, xmm1
	jbe	SHORT $LN44@tri
	movaps	xmm1, xmm10
$LN44@tri:

; 127  : 		if(min>extents.x || max<-extents.x) return false;

	movss	xmm11, DWORD PTR [rcx+60]
	movaps	XMMWORD PTR [rsp+192], xmm6
	movaps	XMMWORD PTR [rsp+160], xmm8
	comiss	xmm0, xmm11
	movaps	XMMWORD PTR [rsp+80], xmm13
	movaps	XMMWORD PTR [rsp+64], xmm14
	movaps	XMMWORD PTR [rsp+48], xmm15
	ja	$LN30@tri
	movss	xmm2, DWORD PTR __xmm@80000000800000008000000080000000
	movaps	xmm0, xmm11
	xorps	xmm0, xmm2
	comiss	xmm0, xmm1
	ja	$LN30@tri

; 128  : 		
; 129  : 		// Same for Y
; 130  : 		v0.y = mLeafVerts[0].y - center.y;

	movss	xmm0, DWORD PTR [rcx+52]
	movss	xmm13, DWORD PTR [rcx+76]

; 131  : 		v1.y = mLeafVerts[1].y - center.y;

	movss	xmm14, DWORD PTR [rcx+88]

; 132  : 		v2.y = mLeafVerts[2].y - center.y;

	movss	xmm15, DWORD PTR [rcx+100]
	subss	xmm13, xmm0
	subss	xmm14, xmm0

; 133  : 		
; 134  : 		FINDMINMAX(v0.y, v1.y, v2.y, min, max);

	movaps	xmm1, xmm13
	comiss	xmm13, xmm14
	subss	xmm15, xmm0
	movss	DWORD PTR v0$2$[rsp], xmm13
	movaps	xmm0, xmm13
	jbe	SHORT $LN41@tri
	movaps	xmm0, xmm14
$LN41@tri:
	comiss	xmm14, xmm13
	jbe	SHORT $LN40@tri
	movaps	xmm1, xmm14
$LN40@tri:
	comiss	xmm0, xmm15
	jbe	SHORT $LN39@tri
	movaps	xmm0, xmm15
$LN39@tri:
	comiss	xmm15, xmm1
	jbe	SHORT $LN38@tri
	movaps	xmm1, xmm15
$LN38@tri:

; 135  : 		if(min>extents.y || max<-extents.y) return false;

	movss	xmm3, DWORD PTR [rcx+64]
	comiss	xmm0, xmm3
	ja	$LN30@tri
	movaps	xmm0, xmm3
	xorps	xmm0, xmm2
	comiss	xmm0, xmm1
	ja	$LN30@tri

; 136  : 		
; 137  : 		// Same for Z
; 138  : 		v0.z = mLeafVerts[0].z - center.z;

	movss	xmm0, DWORD PTR [rcx+56]
	movss	xmm8, DWORD PTR [rcx+80]

; 139  : 		v1.z = mLeafVerts[1].z - center.z;

	movss	xmm1, DWORD PTR [rcx+92]

; 140  : 		v2.z = mLeafVerts[2].z - center.z;

	movss	xmm6, DWORD PTR [rcx+104]
	subss	xmm8, xmm0
	subss	xmm1, xmm0

; 141  : 		
; 142  : 		FINDMINMAX(v0.z, v1.z, v2.z, min, max);

	movaps	xmm4, xmm8
	comiss	xmm8, xmm1
	subss	xmm6, xmm0
	movss	DWORD PTR v1$3$[rsp], xmm1
	movaps	xmm0, xmm8
	jbe	SHORT $LN35@tri
	movaps	xmm0, xmm1
$LN35@tri:
	comiss	xmm1, xmm8
	jbe	SHORT $LN34@tri
	movaps	xmm4, xmm1
$LN34@tri:
	comiss	xmm0, xmm6
	jbe	SHORT $LN33@tri
	movaps	xmm0, xmm6
$LN33@tri:
	comiss	xmm6, xmm4
	jbe	SHORT $LN32@tri
	movaps	xmm4, xmm6
$LN32@tri:

; 143  : 		if(min>extents.z || max<-extents.z) return false;

	movss	xmm5, DWORD PTR [rcx+68]
	comiss	xmm0, xmm5
	ja	$LN30@tri
	movaps	xmm0, xmm5
	xorps	xmm0, xmm2
	comiss	xmm0, xmm4
	ja	$LN30@tri
	movaps	XMMWORD PTR [rsp+176], xmm7
; File c:\x-ray\stcop\rgs\src\xrcdb\opc_point.h

; 375  : 		inline_	Point			operator-(const Point& p)			const		{ return Point(x - p.x, y - p.y, z - p.z);			}

	movaps	xmm7, xmm1
	movaps	xmm5, xmm15
	subss	xmm7, xmm8
	subss	xmm5, xmm14
	movaps	xmm0, xmm9
	movaps	xmm4, xmm14
	subss	xmm0, xmm12
	movss	DWORD PTR e0$2$[rsp], xmm7
	subss	xmm4, xmm13
	movss	DWORD PTR e0$3$[rsp], xmm0
	movaps	xmm0, xmm10
	subss	xmm0, xmm9
	movss	DWORD PTR e1$3$[rsp], xmm0
	movaps	xmm0, xmm6
	subss	xmm0, xmm1
	movss	DWORD PTR e1$2$[rsp], xmm0

; 393  : 		//! Operator for Point VecProd = Point ^ Point.
; 394  : 		ICF		Point			operator^(const Point& p)			const
; 395  : 								{
; 396  : 									return Point(
; 397  : 									y * p.z - z * p.y,
; 398  : 									z * p.x - x * p.z,
; 399  : 									x * p.y - y * p.x );

	movaps	xmm1, xmm0
	movaps	xmm0, xmm5
	mulss	xmm0, xmm7
	mulss	xmm1, xmm4
	subss	xmm1, xmm0
	movss	xmm0, DWORD PTR e1$3$[rsp]
	mulss	xmm0, xmm7
	movss	DWORD PTR normal$1$[rsp], xmm1
	movss	DWORD PTR normal$2$[rsp], xmm0
	movss	xmm7, DWORD PTR normal$2$[rsp]
	movss	xmm0, DWORD PTR e1$2$[rsp]
	mulss	xmm0, DWORD PTR e0$3$[rsp]
	subss	xmm7, xmm0
	movaps	xmm0, xmm5
	movss	DWORD PTR normal$2$[rsp], xmm7
	mulss	xmm0, DWORD PTR e0$3$[rsp]

; 370  : 		inline_	Point			operator-()							const		{ return Point(-x, -y, -z);							}

	xorps	xmm7, xmm2

; 393  : 		//! Operator for Point VecProd = Point ^ Point.
; 394  : 		ICF		Point			operator^(const Point& p)			const
; 395  : 								{
; 396  : 									return Point(
; 397  : 									y * p.z - z * p.y,
; 398  : 									z * p.x - x * p.z,
; 399  : 									x * p.y - y * p.x );

	movss	DWORD PTR normal$3$[rsp], xmm0
	movss	xmm1, DWORD PTR normal$3$[rsp]
	movss	xmm0, DWORD PTR e1$3$[rsp]
	mulss	xmm0, xmm4

; 392  : 		inline_	float			operator|(const Point& p)			const		{ return x*p.x + y*p.y + z*p.z;						}

	mulss	xmm7, xmm13

; 393  : 		//! Operator for Point VecProd = Point ^ Point.
; 394  : 		ICF		Point			operator^(const Point& p)			const
; 395  : 								{
; 396  : 									return Point(
; 397  : 									y * p.z - z * p.y,
; 398  : 									z * p.x - x * p.z,
; 399  : 									x * p.y - y * p.x );

	subss	xmm1, xmm0
	movss	DWORD PTR normal$3$[rsp], xmm1

; 370  : 		inline_	Point			operator-()							const		{ return Point(-x, -y, -z);							}

	movss	xmm0, DWORD PTR normal$3$[rsp]
	movss	xmm1, DWORD PTR normal$1$[rsp]
	xorps	xmm0, xmm2
	xorps	xmm1, xmm2

; 392  : 		inline_	float			operator|(const Point& p)			const		{ return x*p.x + y*p.y + z*p.z;						}

	mulss	xmm0, xmm8
	mulss	xmm1, xmm12
	addss	xmm7, xmm1
	addss	xmm7, xmm0
; File c:\x-ray\stcop\rgs\src\xrcdb\xrcdb_box.cpp

; 24   : 		if(((const float*)normal)[q]>0.0f)	{ ((float*)vmin)[q]=-((const float*)maxbox)[q]; ((float*)vmax)[q]=((const float*)maxbox)[q]; }

	movss	xmm0, DWORD PTR normal$1$[rsp]
; File c:\x-ray\stcop\rgs\src\xrcdb\opc_point.h

; 392  : 		inline_	float			operator|(const Point& p)			const		{ return x*p.x + y*p.y + z*p.z;						}

	movss	DWORD PTR d$1$[rsp], xmm7
	xorps	xmm7, xmm7
; File c:\x-ray\stcop\rgs\src\xrcdb\xrcdb_box.cpp

; 24   : 		if(((const float*)normal)[q]>0.0f)	{ ((float*)vmin)[q]=-((const float*)maxbox)[q]; ((float*)vmax)[q]=((const float*)maxbox)[q]; }

	comiss	xmm0, xmm7
	movss	xmm0, xmm11
	jbe	SHORT $LN104@tri
	movaps	xmm1, xmm0
	xorps	xmm1, xmm2
	movss	DWORD PTR vmin$3$[rsp], xmm1

; 25   : 		else								{ ((float*)vmin)[q]=((const float*)maxbox)[q]; ((float*)vmax)[q]=-((const float*)maxbox)[q]; }

	jmp	SHORT $LN339@tri
$LN104@tri:
	movss	DWORD PTR vmin$3$[rsp], xmm0
	xorps	xmm0, xmm2
$LN339@tri:
	movss	DWORD PTR vmax$3$[rsp], xmm0
	movss	xmm0, DWORD PTR normal$2$[rsp]
	comiss	xmm0, xmm7
	jbe	SHORT $LN332@tri

; 24   : 		if(((const float*)normal)[q]>0.0f)	{ ((float*)vmin)[q]=-((const float*)maxbox)[q]; ((float*)vmax)[q]=((const float*)maxbox)[q]; }

	movaps	xmm1, xmm3
	movss	xmm0, xmm3
	xorps	xmm1, xmm2

; 25   : 		else								{ ((float*)vmin)[q]=((const float*)maxbox)[q]; ((float*)vmax)[q]=-((const float*)maxbox)[q]; }

	jmp	SHORT $LN333@tri
$LN332@tri:
	movaps	xmm0, xmm3
	movss	xmm1, xmm3
	xorps	xmm0, xmm2
$LN333@tri:

; 24   : 		if(((const float*)normal)[q]>0.0f)	{ ((float*)vmin)[q]=-((const float*)maxbox)[q]; ((float*)vmax)[q]=((const float*)maxbox)[q]; }

	movss	xmm13, DWORD PTR normal$3$[rsp]
	comiss	xmm13, xmm7
	movss	xmm13, DWORD PTR v0$2$[rsp]
	movss	xmm7, DWORD PTR [rcx+68]
	jbe	SHORT $LN335@tri
	movaps	xmm13, xmm7
	xorps	xmm13, xmm2
	movss	DWORD PTR vmin$1$[rsp], xmm13

; 25   : 		else								{ ((float*)vmin)[q]=((const float*)maxbox)[q]; ((float*)vmax)[q]=-((const float*)maxbox)[q]; }

	movss	xmm13, DWORD PTR v0$2$[rsp]
	jmp	SHORT $LN336@tri
$LN335@tri:
	movss	DWORD PTR vmin$1$[rsp], xmm7
	xorps	xmm7, xmm2
$LN336@tri:
; File c:\x-ray\stcop\rgs\src\xrcdb\opc_point.h

; 392  : 		inline_	float			operator|(const Point& p)			const		{ return x*p.x + y*p.y + z*p.z;						}

	mulss	xmm1, DWORD PTR normal$2$[rsp]
	movss	xmm2, DWORD PTR vmin$3$[rsp]
	mulss	xmm2, DWORD PTR normal$1$[rsp]
	addss	xmm1, xmm2
	movss	xmm2, DWORD PTR vmin$1$[rsp]
	mulss	xmm2, DWORD PTR normal$3$[rsp]
	addss	xmm1, xmm2
	xorps	xmm2, xmm2
; File c:\x-ray\stcop\rgs\src\xrcdb\xrcdb_box.cpp

; 27   : 	if((normal|vmin)+d>0.0f) return false;

	addss	xmm1, DWORD PTR d$1$[rsp]
	comiss	xmm1, xmm2
	movss	xmm2, DWORD PTR __xmm@80000000800000008000000080000000
	ja	$LN10@tri
; File c:\x-ray\stcop\rgs\src\xrcdb\opc_point.h

; 392  : 		inline_	float			operator|(const Point& p)			const		{ return x*p.x + y*p.y + z*p.z;						}

	mulss	xmm0, DWORD PTR normal$2$[rsp]
	movss	xmm1, DWORD PTR vmax$3$[rsp]
	mulss	xmm7, DWORD PTR normal$3$[rsp]
	mulss	xmm1, DWORD PTR normal$1$[rsp]
	addss	xmm0, xmm1
	xorps	xmm1, xmm1
	addss	xmm0, xmm7
; File c:\x-ray\stcop\rgs\src\xrcdb\xrcdb_box.cpp

; 28   : 	if((normal|vmax)+d>=0.0f) return true;

	addss	xmm0, DWORD PTR d$1$[rsp]
	comiss	xmm0, xmm1
	jb	$LN10@tri

; 167  : 			AXISTEST_X01(e0.z, e0.y, fez0, fey0);

	movss	xmm1, DWORD PTR e0$2$[rsp]
; File c:\program files (x86)\microsoft visual studio 12.0\vc\include\math.h

; 687  :     return (float)fabs(_X);

	cvtps2pd xmm0, xmm4
	andps	xmm0, QWORD PTR __xmm@7fffffffffffffff7fffffffffffffff
; File c:\x-ray\stcop\rgs\src\xrcdb\xrcdb_box.cpp

; 167  : 			AXISTEST_X01(e0.z, e0.y, fez0, fey0);

	movaps	xmm7, xmm1
	mulss	xmm1, xmm15
; File c:\program files (x86)\microsoft visual studio 12.0\vc\include\math.h

; 687  :     return (float)fabs(_X);

	cvtpd2ps xmm0, xmm0
; File c:\x-ray\stcop\rgs\src\xrcdb\xrcdb_box.cpp

; 167  : 			AXISTEST_X01(e0.z, e0.y, fez0, fey0);

	mulss	xmm7, xmm13
; File c:\program files (x86)\microsoft visual studio 12.0\vc\include\math.h

; 687  :     return (float)fabs(_X);

	movss	DWORD PTR fey0$1$[rsp], xmm0
	movss	xmm0, DWORD PTR e0$2$[rsp]
	cvtps2pd xmm0, xmm0
	andps	xmm0, QWORD PTR __xmm@7fffffffffffffff7fffffffffffffff
	cvtpd2ps xmm0, xmm0
	movss	DWORD PTR fez0$1$[rsp], xmm0
; File c:\x-ray\stcop\rgs\src\xrcdb\xrcdb_box.cpp

; 167  : 			AXISTEST_X01(e0.z, e0.y, fez0, fey0);

	movaps	xmm0, xmm4
	mulss	xmm0, xmm8
	subss	xmm7, xmm0
	movaps	xmm0, xmm4
	mulss	xmm0, xmm6
	subss	xmm1, xmm0
	comiss	xmm7, xmm1
	movss	DWORD PTR max$1$[rsp], xmm1
	jbe	SHORT $LN27@tri
	movaps	xmm0, xmm1
	movaps	xmm1, xmm7
	movaps	xmm7, xmm0
	movss	DWORD PTR max$1$[rsp], xmm1
$LN27@tri:
	movss	xmm0, DWORD PTR fey0$1$[rsp]
	movaps	xmm1, xmm3
	mulss	xmm1, DWORD PTR fez0$1$[rsp]
	mulss	xmm0, DWORD PTR [rcx+68]
	addss	xmm1, xmm0
	comiss	xmm7, xmm1
	ja	$LN10@tri
	xorps	xmm1, xmm2
	comiss	xmm1, DWORD PTR max$1$[rsp]
	ja	$LN10@tri
; File c:\program files (x86)\microsoft visual studio 12.0\vc\include\math.h

; 687  :     return (float)fabs(_X);

	movss	xmm7, DWORD PTR e0$3$[rsp]
	cvtps2pd xmm0, xmm7
; File c:\x-ray\stcop\rgs\src\xrcdb\xrcdb_box.cpp

; 169  : 			AXISTEST_Y02(e0.z, e0.x, fez0, fex0);

	movaps	xmm1, xmm7
	mulss	xmm7, xmm6
; File c:\program files (x86)\microsoft visual studio 12.0\vc\include\math.h

; 687  :     return (float)fabs(_X);

	andps	xmm0, QWORD PTR __xmm@7fffffffffffffff7fffffffffffffff
; File c:\x-ray\stcop\rgs\src\xrcdb\xrcdb_box.cpp

; 169  : 			AXISTEST_Y02(e0.z, e0.x, fez0, fex0);

	mulss	xmm1, xmm8
; File c:\program files (x86)\microsoft visual studio 12.0\vc\include\math.h

; 687  :     return (float)fabs(_X);

	cvtpd2ps xmm0, xmm0
	movss	DWORD PTR fex0$1$[rsp], xmm0
; File c:\x-ray\stcop\rgs\src\xrcdb\xrcdb_box.cpp

; 169  : 			AXISTEST_Y02(e0.z, e0.x, fez0, fex0);

	movss	xmm0, DWORD PTR e0$2$[rsp]
	mulss	xmm0, xmm12
	subss	xmm1, xmm0
	movss	xmm0, DWORD PTR e0$2$[rsp]
	mulss	xmm0, xmm10
	subss	xmm7, xmm0
	movss	DWORD PTR min$2$[rsp], xmm1
	comiss	xmm1, xmm7
	jbe	SHORT $LN24@tri
	movaps	xmm0, xmm7
	movaps	xmm7, xmm1
	movaps	xmm1, xmm0
	movss	DWORD PTR min$2$[rsp], xmm1
$LN24@tri:
	movss	xmm0, DWORD PTR fex0$1$[rsp]
	movaps	xmm1, xmm11
	mulss	xmm1, DWORD PTR fez0$1$[rsp]
	mulss	xmm0, DWORD PTR [rcx+68]
	addss	xmm1, xmm0
	movss	xmm0, DWORD PTR min$2$[rsp]
	comiss	xmm0, xmm1
	ja	$LN10@tri
	xorps	xmm1, xmm2
	comiss	xmm1, xmm7
	ja	$LN10@tri

; 170  : 			AXISTEST_Z12(e0.y, e0.x, fey0, fex0);

	movss	xmm1, DWORD PTR e0$3$[rsp]
	movaps	xmm7, xmm4
	mulss	xmm4, xmm10
	mulss	xmm7, xmm9
	movaps	xmm0, xmm1
	mulss	xmm0, xmm14
	mulss	xmm1, xmm15
	subss	xmm7, xmm0
	subss	xmm4, xmm1
	comiss	xmm7, xmm4
	jbe	SHORT $LN21@tri
	movaps	xmm0, xmm4
	movaps	xmm4, xmm7
	movaps	xmm7, xmm0
$LN21@tri:
	movaps	xmm1, xmm11
	movaps	xmm0, xmm3
	mulss	xmm1, DWORD PTR fey0$1$[rsp]
	mulss	xmm0, DWORD PTR fex0$1$[rsp]
	addss	xmm1, xmm0
	comiss	xmm7, xmm1
	ja	$LN10@tri
	xorps	xmm1, xmm2
	comiss	xmm1, xmm4
	ja	$LN10@tri
; File c:\program files (x86)\microsoft visual studio 12.0\vc\include\math.h

; 687  :     return (float)fabs(_X);

	movss	xmm7, DWORD PTR e1$2$[rsp]
	cvtps2pd xmm0, xmm5
	andps	xmm0, QWORD PTR __xmm@7fffffffffffffff7fffffffffffffff
	cvtps2pd xmm1, xmm7
; File c:\x-ray\stcop\rgs\src\xrcdb\xrcdb_box.cpp

; 174  : 			AXISTEST_X01(e1.z, e1.y, fez1, fey1);

	movaps	xmm4, xmm7
; File c:\program files (x86)\microsoft visual studio 12.0\vc\include\math.h

; 687  :     return (float)fabs(_X);

	andps	xmm1, QWORD PTR __xmm@7fffffffffffffff7fffffffffffffff
; File c:\x-ray\stcop\rgs\src\xrcdb\xrcdb_box.cpp

; 174  : 			AXISTEST_X01(e1.z, e1.y, fez1, fey1);

	mulss	xmm4, xmm13
	mulss	xmm7, xmm15
; File c:\program files (x86)\microsoft visual studio 12.0\vc\include\math.h

; 687  :     return (float)fabs(_X);

	cvtpd2ps xmm0, xmm0
	movss	DWORD PTR fey1$1$[rsp], xmm0
	cvtpd2ps xmm0, xmm1
	movss	DWORD PTR fez1$1$[rsp], xmm0
; File c:\x-ray\stcop\rgs\src\xrcdb\xrcdb_box.cpp

; 174  : 			AXISTEST_X01(e1.z, e1.y, fez1, fey1);

	movaps	xmm0, xmm5
	mulss	xmm0, xmm8
	subss	xmm4, xmm0
	movaps	xmm0, xmm5
	mulss	xmm0, xmm6
	subss	xmm7, xmm0
	comiss	xmm4, xmm7
	jbe	SHORT $LN18@tri
	movaps	xmm0, xmm7
	movaps	xmm7, xmm4
	movaps	xmm4, xmm0
$LN18@tri:
	movss	xmm0, DWORD PTR fey1$1$[rsp]
	movaps	xmm1, xmm3
	mulss	xmm1, DWORD PTR fez1$1$[rsp]
	mulss	xmm0, DWORD PTR [rcx+68]
	addss	xmm1, xmm0
	comiss	xmm4, xmm1
	ja	$LN10@tri
	xorps	xmm1, xmm2
	comiss	xmm1, xmm7
	ja	$LN10@tri
; File c:\program files (x86)\microsoft visual studio 12.0\vc\include\math.h

; 687  :     return (float)fabs(_X);

	movss	xmm4, DWORD PTR e1$3$[rsp]
; File c:\x-ray\stcop\rgs\src\xrcdb\xrcdb_box.cpp

; 176  : 			AXISTEST_Y02(e1.z, e1.x, fez1, fex1);

	movss	xmm1, DWORD PTR e1$2$[rsp]
; File c:\program files (x86)\microsoft visual studio 12.0\vc\include\math.h

; 687  :     return (float)fabs(_X);

	cvtps2pd xmm0, xmm4
; File c:\x-ray\stcop\rgs\src\xrcdb\xrcdb_box.cpp

; 176  : 			AXISTEST_Y02(e1.z, e1.x, fez1, fex1);

	movaps	xmm7, xmm4
	mulss	xmm7, xmm8
; File c:\program files (x86)\microsoft visual studio 12.0\vc\include\math.h

; 687  :     return (float)fabs(_X);

	andps	xmm0, QWORD PTR __xmm@7fffffffffffffff7fffffffffffffff
; File c:\x-ray\stcop\rgs\src\xrcdb\xrcdb_box.cpp

; 176  : 			AXISTEST_Y02(e1.z, e1.x, fez1, fex1);

	mulss	xmm4, xmm6
; File c:\program files (x86)\microsoft visual studio 12.0\vc\include\math.h

; 687  :     return (float)fabs(_X);

	cvtpd2ps xmm0, xmm0
	movss	DWORD PTR fex1$1$[rsp], xmm0
; File c:\x-ray\stcop\rgs\src\xrcdb\xrcdb_box.cpp

; 176  : 			AXISTEST_Y02(e1.z, e1.x, fez1, fex1);

	movaps	xmm0, xmm1
	mulss	xmm1, xmm10
	mulss	xmm0, xmm12
	subss	xmm4, xmm1
	subss	xmm7, xmm0
	comiss	xmm7, xmm4
	jbe	SHORT $LN15@tri
	movaps	xmm0, xmm4
	movaps	xmm4, xmm7
	movaps	xmm7, xmm0
$LN15@tri:
	movss	xmm6, DWORD PTR fex1$1$[rsp]
	movaps	xmm1, xmm11
	mulss	xmm1, DWORD PTR fez1$1$[rsp]
	movaps	xmm0, xmm6
	mulss	xmm0, DWORD PTR [rcx+68]
	addss	xmm1, xmm0
	comiss	xmm7, xmm1
	ja	$LN10@tri
	xorps	xmm1, xmm2
	comiss	xmm1, xmm4
	ja	$LN10@tri

; 177  : 			AXISTEST_Z0(e1.y, e1.x, fey1, fex1);

	movss	xmm1, DWORD PTR e1$3$[rsp]
	movaps	xmm4, xmm5
	mulss	xmm5, xmm9
	mulss	xmm4, xmm12
	movaps	xmm0, xmm1
	mulss	xmm0, xmm13
	mulss	xmm1, xmm14
	subss	xmm4, xmm0
	subss	xmm5, xmm1
	comiss	xmm4, xmm5
	jbe	SHORT $LN12@tri
	movaps	xmm0, xmm5
	movaps	xmm5, xmm4
	movaps	xmm4, xmm0
$LN12@tri:
	movaps	xmm0, xmm11
	movaps	xmm1, xmm3
	mulss	xmm0, DWORD PTR fey1$1$[rsp]
	mulss	xmm1, xmm6
	addss	xmm1, xmm0
	comiss	xmm4, xmm1
	ja	$LN10@tri
	xorps	xmm1, xmm2
	comiss	xmm1, xmm5
	ja	$LN10@tri
; File c:\x-ray\stcop\rgs\src\xrcdb\opc_point.h

; 375  : 		inline_	Point			operator-(const Point& p)			const		{ return Point(x - p.x, y - p.y, z - p.z);			}

	movss	xmm4, DWORD PTR [rcx+76]
	movss	xmm13, DWORD PTR [rcx+80]
	movss	xmm7, DWORD PTR [rcx+72]
	subss	xmm4, DWORD PTR [rcx+100]
	subss	xmm13, DWORD PTR [rcx+104]
	subss	xmm7, DWORD PTR [rcx+96]
; File c:\x-ray\stcop\rgs\src\xrcdb\xrcdb_box.cpp

; 182  : 			AXISTEST_X2(e2.z, e2.y, fez2, fey2);

	movaps	xmm6, xmm13
	movaps	xmm5, xmm13
	mulss	xmm6, DWORD PTR v0$2$[rsp]
	mulss	xmm5, xmm14
; File c:\program files (x86)\microsoft visual studio 12.0\vc\include\math.h

; 687  :     return (float)fabs(_X);

	cvtps2pd xmm0, xmm4
	cvtps2pd xmm1, xmm13
	andps	xmm0, QWORD PTR __xmm@7fffffffffffffff7fffffffffffffff
	andps	xmm1, QWORD PTR __xmm@7fffffffffffffff7fffffffffffffff
	cvtpd2ps xmm0, xmm0
	movss	DWORD PTR fey2$1$[rsp], xmm0
	cvtpd2ps xmm0, xmm1
	movss	DWORD PTR fez2$1$[rsp], xmm0
; File c:\x-ray\stcop\rgs\src\xrcdb\xrcdb_box.cpp

; 182  : 			AXISTEST_X2(e2.z, e2.y, fez2, fey2);

	movaps	xmm0, xmm4
	mulss	xmm0, xmm8
	subss	xmm6, xmm0
	movaps	xmm0, xmm4
	mulss	xmm0, DWORD PTR v1$3$[rsp]
	subss	xmm5, xmm0
	comiss	xmm6, xmm5
	jbe	SHORT $LN9@tri
	movaps	xmm0, xmm5
	movaps	xmm5, xmm6
	movaps	xmm6, xmm0
$LN9@tri:
	movss	xmm0, DWORD PTR fey2$1$[rsp]
	movaps	xmm1, xmm3
	mulss	xmm1, DWORD PTR fez2$1$[rsp]
	mulss	xmm0, DWORD PTR [rcx+68]
	addss	xmm1, xmm0
	comiss	xmm6, xmm1
	ja	$LN10@tri
	xorps	xmm1, xmm2
	comiss	xmm1, xmm5
	ja	$LN10@tri
; File c:\program files (x86)\microsoft visual studio 12.0\vc\include\math.h

; 687  :     return (float)fabs(_X);

	cvtps2pd xmm0, xmm7
; File c:\x-ray\stcop\rgs\src\xrcdb\xrcdb_box.cpp

; 184  : 			AXISTEST_Y1(e2.z, e2.x, fez2, fex2);

	movaps	xmm5, xmm7
	movaps	xmm6, xmm7
	mulss	xmm5, DWORD PTR v1$3$[rsp]
	mulss	xmm6, xmm8
; File c:\program files (x86)\microsoft visual studio 12.0\vc\include\math.h

; 687  :     return (float)fabs(_X);

	andps	xmm0, QWORD PTR __xmm@7fffffffffffffff7fffffffffffffff
	cvtpd2ps xmm0, xmm0
	movss	DWORD PTR fex2$1$[rsp], xmm0
; File c:\x-ray\stcop\rgs\src\xrcdb\xrcdb_box.cpp

; 184  : 			AXISTEST_Y1(e2.z, e2.x, fez2, fex2);

	movaps	xmm0, xmm13
	mulss	xmm13, xmm9
	mulss	xmm0, xmm12
	subss	xmm5, xmm13
	subss	xmm6, xmm0
	comiss	xmm6, xmm5
	jbe	SHORT $LN6@tri
	movaps	xmm0, xmm5
	movaps	xmm5, xmm6
	movaps	xmm6, xmm0
$LN6@tri:
	movss	xmm8, DWORD PTR fex2$1$[rsp]
	movaps	xmm1, xmm11
	mulss	xmm1, DWORD PTR fez2$1$[rsp]
	movaps	xmm0, xmm8
	mulss	xmm0, DWORD PTR [rcx+68]
	addss	xmm1, xmm0
	comiss	xmm6, xmm1
	ja	$LN10@tri
	xorps	xmm1, xmm2
	comiss	xmm1, xmm5
	ja	$LN10@tri

; 185  : 			AXISTEST_Z12(e2.y, e2.x, fey2, fex2);

	movaps	xmm1, xmm4
	movaps	xmm0, xmm7
	mulss	xmm4, xmm10
	mulss	xmm1, xmm9
	mulss	xmm0, xmm14
	mulss	xmm7, xmm15
	subss	xmm1, xmm0
	subss	xmm4, xmm7
	comiss	xmm1, xmm4
	jbe	SHORT $LN3@tri
	movaps	xmm0, xmm4
	movaps	xmm4, xmm1
	movaps	xmm1, xmm0
$LN3@tri:
	mulss	xmm11, DWORD PTR fey2$1$[rsp]
	mulss	xmm3, xmm8
	addss	xmm3, xmm11
	comiss	xmm1, xmm3
	ja	SHORT $LN10@tri
	xorps	xmm3, xmm2
	comiss	xmm3, xmm4
	ja	SHORT $LN10@tri

; 186  : 		}
; 187  : 		return true;

	mov	al, 1
$LN338@tri:
	movaps	xmm7, XMMWORD PTR [rsp+176]
$LN62@tri:
	movaps	xmm15, XMMWORD PTR [rsp+48]
	movaps	xmm14, XMMWORD PTR [rsp+64]
	movaps	xmm13, XMMWORD PTR [rsp+80]

; 188  : 	}

	lea	r11, QWORD PTR [rsp+216]
	movaps	xmm9, XMMWORD PTR [r11-72]
	movaps	xmm10, XMMWORD PTR [r11-88]
	movaps	xmm11, XMMWORD PTR [r11-104]
	movaps	xmm12, XMMWORD PTR [r11-120]
	movaps	xmm8, XMMWORD PTR [rsp+160]
	movaps	xmm6, XMMWORD PTR [rsp+192]
	mov	rsp, r11
	ret	0
$LN10@tri:

; 186  : 		}
; 187  : 		return true;

	xor	al, al
	jmp	SHORT $LN338@tri
$LN30@tri:
	xor	al, al
	jmp	SHORT $LN62@tri
?_tri@?$box_collider@$00$00@@QEAA_NXZ ENDP		; box_collider<1,1>::_tri
_TEXT	ENDS
; Function compile flags: /Ogtpy
; File c:\x-ray\stcop\rgs\src\xrcdb\xrcdb_box.cpp
; File c:\x-ray\stcop\rgs\src\xrcdb\opc_point.h
; File c:\x-ray\stcop\rgs\src\xrcdb\xrcdb_box.cpp
; File c:\x-ray\stcop\rgs\src\xrcdb\opc_point.h
; File c:\x-ray\stcop\rgs\src\xrcdb\xrcdb_box.cpp
; File c:\x-ray\stcop\rgs\src\xrcdb\opc_point.h
; File c:\x-ray\stcop\rgs\src\xrcdb\xrcdb_box.cpp
; File c:\x-ray\stcop\rgs\src\xrcdb\opc_point.h
; File c:\x-ray\stcop\rgs\src\xrcdb\xrcdb_box.cpp
; File c:\program files (x86)\microsoft visual studio 12.0\vc\include\math.h
; File c:\x-ray\stcop\rgs\src\xrcdb\xrcdb_box.cpp
; File c:\program files (x86)\microsoft visual studio 12.0\vc\include\math.h
; File c:\x-ray\stcop\rgs\src\xrcdb\xrcdb_box.cpp
; File c:\program files (x86)\microsoft visual studio 12.0\vc\include\math.h
; File c:\x-ray\stcop\rgs\src\xrcdb\xrcdb_box.cpp
; File c:\program files (x86)\microsoft visual studio 12.0\vc\include\math.h
; File c:\x-ray\stcop\rgs\src\xrcdb\xrcdb_box.cpp
; File c:\program files (x86)\microsoft visual studio 12.0\vc\include\math.h
; File c:\x-ray\stcop\rgs\src\xrcdb\xrcdb_box.cpp
; File c:\program files (x86)\microsoft visual studio 12.0\vc\include\math.h
; File c:\x-ray\stcop\rgs\src\xrcdb\xrcdb_box.cpp
; File c:\program files (x86)\microsoft visual studio 12.0\vc\include\math.h
; File c:\x-ray\stcop\rgs\src\xrcdb\xrcdb_box.cpp
; File c:\program files (x86)\microsoft visual studio 12.0\vc\include\math.h
; File c:\x-ray\stcop\rgs\src\xrcdb\xrcdb_box.cpp
; File c:\program files (x86)\microsoft visual studio 12.0\vc\include\math.h
; File c:\x-ray\stcop\rgs\src\xrcdb\xrcdb_box.cpp
; File c:\program files (x86)\microsoft visual studio 12.0\vc\include\math.h
; File c:\x-ray\stcop\rgs\src\xrcdb\xrcdb_box.cpp
; File c:\program files (x86)\microsoft visual studio 12.0\vc\include\math.h
; File c:\x-ray\stcop\rgs\src\xrcdb\xrcdb_box.cpp
; File c:\program files (x86)\microsoft visual studio 12.0\vc\include\math.h
; File c:\x-ray\stcop\rgs\src\xrcdb\xrcdb_box.cpp
; File c:\program files (x86)\microsoft visual studio 12.0\vc\include\math.h
; File c:\x-ray\stcop\rgs\src\xrcdb\xrcdb_box.cpp
; File c:\x-ray\stcop\rgs\src\xrcdb\opc_point.h
; File c:\x-ray\stcop\rgs\src\xrcdb\xrcdb_box.cpp
; File c:\program files (x86)\microsoft visual studio 12.0\vc\include\math.h
; File c:\x-ray\stcop\rgs\src\xrcdb\xrcdb_box.cpp
; File c:\program files (x86)\microsoft visual studio 12.0\vc\include\math.h
; File c:\x-ray\stcop\rgs\src\xrcdb\xrcdb_box.cpp
; File c:\program files (x86)\microsoft visual studio 12.0\vc\include\math.h
; File c:\x-ray\stcop\rgs\src\xrcdb\xrcdb_box.cpp
;	COMDAT ?_tri@?$box_collider@$00$0A@@@QEAA_NXZ
_TEXT	SEGMENT
fex0$1$ = 0
d$1$ = 0
e1$3$ = 4
e1$2$ = 8
v0$2$ = 12
e0$3$ = 16
vmin$3$ = 20
vmin$1$ = 24
vmax$3$ = 28
v1$3$ = 32
normal$3$ = 224
fez2$1$ = 224
fez1$1$ = 224
max$1$ = 224
min$2$ = 224
this$ = 224
normal$2$ = 232
fey2$1$ = 232
fey1$1$ = 232
fez0$1$ = 232
normal$1$ = 240
fex2$1$ = 240
fex1$1$ = 240
fey0$1$ = 240
e0$2$ = 248
?_tri@?$box_collider@$00$0A@@@QEAA_NXZ PROC		; box_collider<1,0>::_tri, COMDAT

; 116  : 	{

$LN341:
	mov	rax, rsp
	sub	rsp, 216				; 000000d8H

; 117  : 		// move everything so that the boxcenter is in (0,0,0) 
; 118  : 		Point v0, v1, v2;
; 119  : 		v0.x = mLeafVerts[0].x - center.x;

	movss	xmm0, DWORD PTR [rcx+48]
	movaps	XMMWORD PTR [rax-72], xmm9

; 120  : 		v1.x = mLeafVerts[1].x - center.x;

	movss	xmm9, DWORD PTR [rcx+84]
	movaps	XMMWORD PTR [rax-88], xmm10
	movaps	XMMWORD PTR [rax-104], xmm11
	movaps	XMMWORD PTR [rax-120], xmm12
	movss	xmm12, DWORD PTR [rcx+72]

; 121  : 		v2.x = mLeafVerts[2].x - center.x;

	movss	xmm10, DWORD PTR [rcx+96]
	subss	xmm9, xmm0
	subss	xmm12, xmm0
	subss	xmm10, xmm0

; 122  : 		
; 123  : 		// First, test overlap in the {x,y,z}-directions
; 124  : 		float min,max;
; 125  : 		// Find min, max of the triangle in x-direction, and test for overlap in X
; 126  : 		FINDMINMAX(v0.x, v1.x, v2.x, min, max);

	movaps	xmm1, xmm12
	movaps	xmm0, xmm12
	comiss	xmm12, xmm9
	jbe	SHORT $LN47@tri
	movaps	xmm0, xmm9
$LN47@tri:
	comiss	xmm9, xmm12
	jbe	SHORT $LN46@tri
	movaps	xmm1, xmm9
$LN46@tri:
	comiss	xmm0, xmm10
	jbe	SHORT $LN45@tri
	movaps	xmm0, xmm10
$LN45@tri:
	comiss	xmm10, xmm1
	jbe	SHORT $LN44@tri
	movaps	xmm1, xmm10
$LN44@tri:

; 127  : 		if(min>extents.x || max<-extents.x) return false;

	movss	xmm11, DWORD PTR [rcx+60]
	movaps	XMMWORD PTR [rsp+192], xmm6
	movaps	XMMWORD PTR [rsp+160], xmm8
	comiss	xmm0, xmm11
	movaps	XMMWORD PTR [rsp+80], xmm13
	movaps	XMMWORD PTR [rsp+64], xmm14
	movaps	XMMWORD PTR [rsp+48], xmm15
	ja	$LN30@tri
	movss	xmm2, DWORD PTR __xmm@80000000800000008000000080000000
	movaps	xmm0, xmm11
	xorps	xmm0, xmm2
	comiss	xmm0, xmm1
	ja	$LN30@tri

; 128  : 		
; 129  : 		// Same for Y
; 130  : 		v0.y = mLeafVerts[0].y - center.y;

	movss	xmm0, DWORD PTR [rcx+52]
	movss	xmm13, DWORD PTR [rcx+76]

; 131  : 		v1.y = mLeafVerts[1].y - center.y;

	movss	xmm14, DWORD PTR [rcx+88]

; 132  : 		v2.y = mLeafVerts[2].y - center.y;

	movss	xmm15, DWORD PTR [rcx+100]
	subss	xmm13, xmm0
	subss	xmm14, xmm0

; 133  : 		
; 134  : 		FINDMINMAX(v0.y, v1.y, v2.y, min, max);

	movaps	xmm1, xmm13
	comiss	xmm13, xmm14
	subss	xmm15, xmm0
	movss	DWORD PTR v0$2$[rsp], xmm13
	movaps	xmm0, xmm13
	jbe	SHORT $LN41@tri
	movaps	xmm0, xmm14
$LN41@tri:
	comiss	xmm14, xmm13
	jbe	SHORT $LN40@tri
	movaps	xmm1, xmm14
$LN40@tri:
	comiss	xmm0, xmm15
	jbe	SHORT $LN39@tri
	movaps	xmm0, xmm15
$LN39@tri:
	comiss	xmm15, xmm1
	jbe	SHORT $LN38@tri
	movaps	xmm1, xmm15
$LN38@tri:

; 135  : 		if(min>extents.y || max<-extents.y) return false;

	movss	xmm3, DWORD PTR [rcx+64]
	comiss	xmm0, xmm3
	ja	$LN30@tri
	movaps	xmm0, xmm3
	xorps	xmm0, xmm2
	comiss	xmm0, xmm1
	ja	$LN30@tri

; 136  : 		
; 137  : 		// Same for Z
; 138  : 		v0.z = mLeafVerts[0].z - center.z;

	movss	xmm0, DWORD PTR [rcx+56]
	movss	xmm8, DWORD PTR [rcx+80]

; 139  : 		v1.z = mLeafVerts[1].z - center.z;

	movss	xmm1, DWORD PTR [rcx+92]

; 140  : 		v2.z = mLeafVerts[2].z - center.z;

	movss	xmm6, DWORD PTR [rcx+104]
	subss	xmm8, xmm0
	subss	xmm1, xmm0

; 141  : 		
; 142  : 		FINDMINMAX(v0.z, v1.z, v2.z, min, max);

	movaps	xmm4, xmm8
	comiss	xmm8, xmm1
	subss	xmm6, xmm0
	movss	DWORD PTR v1$3$[rsp], xmm1
	movaps	xmm0, xmm8
	jbe	SHORT $LN35@tri
	movaps	xmm0, xmm1
$LN35@tri:
	comiss	xmm1, xmm8
	jbe	SHORT $LN34@tri
	movaps	xmm4, xmm1
$LN34@tri:
	comiss	xmm0, xmm6
	jbe	SHORT $LN33@tri
	movaps	xmm0, xmm6
$LN33@tri:
	comiss	xmm6, xmm4
	jbe	SHORT $LN32@tri
	movaps	xmm4, xmm6
$LN32@tri:

; 143  : 		if(min>extents.z || max<-extents.z) return false;

	movss	xmm5, DWORD PTR [rcx+68]
	comiss	xmm0, xmm5
	ja	$LN30@tri
	movaps	xmm0, xmm5
	xorps	xmm0, xmm2
	comiss	xmm0, xmm4
	ja	$LN30@tri
	movaps	XMMWORD PTR [rsp+176], xmm7
; File c:\x-ray\stcop\rgs\src\xrcdb\opc_point.h

; 375  : 		inline_	Point			operator-(const Point& p)			const		{ return Point(x - p.x, y - p.y, z - p.z);			}

	movaps	xmm7, xmm1
	movaps	xmm5, xmm15
	subss	xmm7, xmm8
	subss	xmm5, xmm14
	movaps	xmm0, xmm9
	movaps	xmm4, xmm14
	subss	xmm0, xmm12
	movss	DWORD PTR e0$2$[rsp], xmm7
	subss	xmm4, xmm13
	movss	DWORD PTR e0$3$[rsp], xmm0
	movaps	xmm0, xmm10
	subss	xmm0, xmm9
	movss	DWORD PTR e1$3$[rsp], xmm0
	movaps	xmm0, xmm6
	subss	xmm0, xmm1
	movss	DWORD PTR e1$2$[rsp], xmm0

; 393  : 		//! Operator for Point VecProd = Point ^ Point.
; 394  : 		ICF		Point			operator^(const Point& p)			const
; 395  : 								{
; 396  : 									return Point(
; 397  : 									y * p.z - z * p.y,
; 398  : 									z * p.x - x * p.z,
; 399  : 									x * p.y - y * p.x );

	movaps	xmm1, xmm0
	movaps	xmm0, xmm5
	mulss	xmm0, xmm7
	mulss	xmm1, xmm4
	subss	xmm1, xmm0
	movss	xmm0, DWORD PTR e1$3$[rsp]
	mulss	xmm0, xmm7
	movss	DWORD PTR normal$1$[rsp], xmm1
	movss	DWORD PTR normal$2$[rsp], xmm0
	movss	xmm7, DWORD PTR normal$2$[rsp]
	movss	xmm0, DWORD PTR e1$2$[rsp]
	mulss	xmm0, DWORD PTR e0$3$[rsp]
	subss	xmm7, xmm0
	movaps	xmm0, xmm5
	movss	DWORD PTR normal$2$[rsp], xmm7
	mulss	xmm0, DWORD PTR e0$3$[rsp]

; 370  : 		inline_	Point			operator-()							const		{ return Point(-x, -y, -z);							}

	xorps	xmm7, xmm2

; 393  : 		//! Operator for Point VecProd = Point ^ Point.
; 394  : 		ICF		Point			operator^(const Point& p)			const
; 395  : 								{
; 396  : 									return Point(
; 397  : 									y * p.z - z * p.y,
; 398  : 									z * p.x - x * p.z,
; 399  : 									x * p.y - y * p.x );

	movss	DWORD PTR normal$3$[rsp], xmm0
	movss	xmm1, DWORD PTR normal$3$[rsp]
	movss	xmm0, DWORD PTR e1$3$[rsp]
	mulss	xmm0, xmm4

; 392  : 		inline_	float			operator|(const Point& p)			const		{ return x*p.x + y*p.y + z*p.z;						}

	mulss	xmm7, xmm13

; 393  : 		//! Operator for Point VecProd = Point ^ Point.
; 394  : 		ICF		Point			operator^(const Point& p)			const
; 395  : 								{
; 396  : 									return Point(
; 397  : 									y * p.z - z * p.y,
; 398  : 									z * p.x - x * p.z,
; 399  : 									x * p.y - y * p.x );

	subss	xmm1, xmm0
	movss	DWORD PTR normal$3$[rsp], xmm1

; 370  : 		inline_	Point			operator-()							const		{ return Point(-x, -y, -z);							}

	movss	xmm0, DWORD PTR normal$3$[rsp]
	movss	xmm1, DWORD PTR normal$1$[rsp]
	xorps	xmm0, xmm2
	xorps	xmm1, xmm2

; 392  : 		inline_	float			operator|(const Point& p)			const		{ return x*p.x + y*p.y + z*p.z;						}

	mulss	xmm0, xmm8
	mulss	xmm1, xmm12
	addss	xmm7, xmm1
	addss	xmm7, xmm0
; File c:\x-ray\stcop\rgs\src\xrcdb\xrcdb_box.cpp

; 24   : 		if(((const float*)normal)[q]>0.0f)	{ ((float*)vmin)[q]=-((const float*)maxbox)[q]; ((float*)vmax)[q]=((const float*)maxbox)[q]; }

	movss	xmm0, DWORD PTR normal$1$[rsp]
; File c:\x-ray\stcop\rgs\src\xrcdb\opc_point.h

; 392  : 		inline_	float			operator|(const Point& p)			const		{ return x*p.x + y*p.y + z*p.z;						}

	movss	DWORD PTR d$1$[rsp], xmm7
	xorps	xmm7, xmm7
; File c:\x-ray\stcop\rgs\src\xrcdb\xrcdb_box.cpp

; 24   : 		if(((const float*)normal)[q]>0.0f)	{ ((float*)vmin)[q]=-((const float*)maxbox)[q]; ((float*)vmax)[q]=((const float*)maxbox)[q]; }

	comiss	xmm0, xmm7
	movss	xmm0, xmm11
	jbe	SHORT $LN104@tri
	movaps	xmm1, xmm0
	xorps	xmm1, xmm2
	movss	DWORD PTR vmin$3$[rsp], xmm1

; 25   : 		else								{ ((float*)vmin)[q]=((const float*)maxbox)[q]; ((float*)vmax)[q]=-((const float*)maxbox)[q]; }

	jmp	SHORT $LN339@tri
$LN104@tri:
	movss	DWORD PTR vmin$3$[rsp], xmm0
	xorps	xmm0, xmm2
$LN339@tri:
	movss	DWORD PTR vmax$3$[rsp], xmm0
	movss	xmm0, DWORD PTR normal$2$[rsp]
	comiss	xmm0, xmm7
	jbe	SHORT $LN332@tri

; 24   : 		if(((const float*)normal)[q]>0.0f)	{ ((float*)vmin)[q]=-((const float*)maxbox)[q]; ((float*)vmax)[q]=((const float*)maxbox)[q]; }

	movaps	xmm1, xmm3
	movss	xmm0, xmm3
	xorps	xmm1, xmm2

; 25   : 		else								{ ((float*)vmin)[q]=((const float*)maxbox)[q]; ((float*)vmax)[q]=-((const float*)maxbox)[q]; }

	jmp	SHORT $LN333@tri
$LN332@tri:
	movaps	xmm0, xmm3
	movss	xmm1, xmm3
	xorps	xmm0, xmm2
$LN333@tri:

; 24   : 		if(((const float*)normal)[q]>0.0f)	{ ((float*)vmin)[q]=-((const float*)maxbox)[q]; ((float*)vmax)[q]=((const float*)maxbox)[q]; }

	movss	xmm13, DWORD PTR normal$3$[rsp]
	comiss	xmm13, xmm7
	movss	xmm13, DWORD PTR v0$2$[rsp]
	movss	xmm7, DWORD PTR [rcx+68]
	jbe	SHORT $LN335@tri
	movaps	xmm13, xmm7
	xorps	xmm13, xmm2
	movss	DWORD PTR vmin$1$[rsp], xmm13

; 25   : 		else								{ ((float*)vmin)[q]=((const float*)maxbox)[q]; ((float*)vmax)[q]=-((const float*)maxbox)[q]; }

	movss	xmm13, DWORD PTR v0$2$[rsp]
	jmp	SHORT $LN336@tri
$LN335@tri:
	movss	DWORD PTR vmin$1$[rsp], xmm7
	xorps	xmm7, xmm2
$LN336@tri:
; File c:\x-ray\stcop\rgs\src\xrcdb\opc_point.h

; 392  : 		inline_	float			operator|(const Point& p)			const		{ return x*p.x + y*p.y + z*p.z;						}

	mulss	xmm1, DWORD PTR normal$2$[rsp]
	movss	xmm2, DWORD PTR vmin$3$[rsp]
	mulss	xmm2, DWORD PTR normal$1$[rsp]
	addss	xmm1, xmm2
	movss	xmm2, DWORD PTR vmin$1$[rsp]
	mulss	xmm2, DWORD PTR normal$3$[rsp]
	addss	xmm1, xmm2
	xorps	xmm2, xmm2
; File c:\x-ray\stcop\rgs\src\xrcdb\xrcdb_box.cpp

; 27   : 	if((normal|vmin)+d>0.0f) return false;

	addss	xmm1, DWORD PTR d$1$[rsp]
	comiss	xmm1, xmm2
	movss	xmm2, DWORD PTR __xmm@80000000800000008000000080000000
	ja	$LN10@tri
; File c:\x-ray\stcop\rgs\src\xrcdb\opc_point.h

; 392  : 		inline_	float			operator|(const Point& p)			const		{ return x*p.x + y*p.y + z*p.z;						}

	mulss	xmm0, DWORD PTR normal$2$[rsp]
	movss	xmm1, DWORD PTR vmax$3$[rsp]
	mulss	xmm7, DWORD PTR normal$3$[rsp]
	mulss	xmm1, DWORD PTR normal$1$[rsp]
	addss	xmm0, xmm1
	xorps	xmm1, xmm1
	addss	xmm0, xmm7
; File c:\x-ray\stcop\rgs\src\xrcdb\xrcdb_box.cpp

; 28   : 	if((normal|vmax)+d>=0.0f) return true;

	addss	xmm0, DWORD PTR d$1$[rsp]
	comiss	xmm0, xmm1
	jb	$LN10@tri

; 167  : 			AXISTEST_X01(e0.z, e0.y, fez0, fey0);

	movss	xmm1, DWORD PTR e0$2$[rsp]
; File c:\program files (x86)\microsoft visual studio 12.0\vc\include\math.h

; 687  :     return (float)fabs(_X);

	cvtps2pd xmm0, xmm4
	andps	xmm0, QWORD PTR __xmm@7fffffffffffffff7fffffffffffffff
; File c:\x-ray\stcop\rgs\src\xrcdb\xrcdb_box.cpp

; 167  : 			AXISTEST_X01(e0.z, e0.y, fez0, fey0);

	movaps	xmm7, xmm1
	mulss	xmm1, xmm15
; File c:\program files (x86)\microsoft visual studio 12.0\vc\include\math.h

; 687  :     return (float)fabs(_X);

	cvtpd2ps xmm0, xmm0
; File c:\x-ray\stcop\rgs\src\xrcdb\xrcdb_box.cpp

; 167  : 			AXISTEST_X01(e0.z, e0.y, fez0, fey0);

	mulss	xmm7, xmm13
; File c:\program files (x86)\microsoft visual studio 12.0\vc\include\math.h

; 687  :     return (float)fabs(_X);

	movss	DWORD PTR fey0$1$[rsp], xmm0
	movss	xmm0, DWORD PTR e0$2$[rsp]
	cvtps2pd xmm0, xmm0
	andps	xmm0, QWORD PTR __xmm@7fffffffffffffff7fffffffffffffff
	cvtpd2ps xmm0, xmm0
	movss	DWORD PTR fez0$1$[rsp], xmm0
; File c:\x-ray\stcop\rgs\src\xrcdb\xrcdb_box.cpp

; 167  : 			AXISTEST_X01(e0.z, e0.y, fez0, fey0);

	movaps	xmm0, xmm4
	mulss	xmm0, xmm8
	subss	xmm7, xmm0
	movaps	xmm0, xmm4
	mulss	xmm0, xmm6
	subss	xmm1, xmm0
	comiss	xmm7, xmm1
	movss	DWORD PTR max$1$[rsp], xmm1
	jbe	SHORT $LN27@tri
	movaps	xmm0, xmm1
	movaps	xmm1, xmm7
	movaps	xmm7, xmm0
	movss	DWORD PTR max$1$[rsp], xmm1
$LN27@tri:
	movss	xmm0, DWORD PTR fey0$1$[rsp]
	movaps	xmm1, xmm3
	mulss	xmm1, DWORD PTR fez0$1$[rsp]
	mulss	xmm0, DWORD PTR [rcx+68]
	addss	xmm1, xmm0
	comiss	xmm7, xmm1
	ja	$LN10@tri
	xorps	xmm1, xmm2
	comiss	xmm1, DWORD PTR max$1$[rsp]
	ja	$LN10@tri
; File c:\program files (x86)\microsoft visual studio 12.0\vc\include\math.h

; 687  :     return (float)fabs(_X);

	movss	xmm7, DWORD PTR e0$3$[rsp]
	cvtps2pd xmm0, xmm7
; File c:\x-ray\stcop\rgs\src\xrcdb\xrcdb_box.cpp

; 169  : 			AXISTEST_Y02(e0.z, e0.x, fez0, fex0);

	movaps	xmm1, xmm7
	mulss	xmm7, xmm6
; File c:\program files (x86)\microsoft visual studio 12.0\vc\include\math.h

; 687  :     return (float)fabs(_X);

	andps	xmm0, QWORD PTR __xmm@7fffffffffffffff7fffffffffffffff
; File c:\x-ray\stcop\rgs\src\xrcdb\xrcdb_box.cpp

; 169  : 			AXISTEST_Y02(e0.z, e0.x, fez0, fex0);

	mulss	xmm1, xmm8
; File c:\program files (x86)\microsoft visual studio 12.0\vc\include\math.h

; 687  :     return (float)fabs(_X);

	cvtpd2ps xmm0, xmm0
	movss	DWORD PTR fex0$1$[rsp], xmm0
; File c:\x-ray\stcop\rgs\src\xrcdb\xrcdb_box.cpp

; 169  : 			AXISTEST_Y02(e0.z, e0.x, fez0, fex0);

	movss	xmm0, DWORD PTR e0$2$[rsp]
	mulss	xmm0, xmm12
	subss	xmm1, xmm0
	movss	xmm0, DWORD PTR e0$2$[rsp]
	mulss	xmm0, xmm10
	subss	xmm7, xmm0
	movss	DWORD PTR min$2$[rsp], xmm1
	comiss	xmm1, xmm7
	jbe	SHORT $LN24@tri
	movaps	xmm0, xmm7
	movaps	xmm7, xmm1
	movaps	xmm1, xmm0
	movss	DWORD PTR min$2$[rsp], xmm1
$LN24@tri:
	movss	xmm0, DWORD PTR fex0$1$[rsp]
	movaps	xmm1, xmm11
	mulss	xmm1, DWORD PTR fez0$1$[rsp]
	mulss	xmm0, DWORD PTR [rcx+68]
	addss	xmm1, xmm0
	movss	xmm0, DWORD PTR min$2$[rsp]
	comiss	xmm0, xmm1
	ja	$LN10@tri
	xorps	xmm1, xmm2
	comiss	xmm1, xmm7
	ja	$LN10@tri

; 170  : 			AXISTEST_Z12(e0.y, e0.x, fey0, fex0);

	movss	xmm1, DWORD PTR e0$3$[rsp]
	movaps	xmm7, xmm4
	mulss	xmm4, xmm10
	mulss	xmm7, xmm9
	movaps	xmm0, xmm1
	mulss	xmm0, xmm14
	mulss	xmm1, xmm15
	subss	xmm7, xmm0
	subss	xmm4, xmm1
	comiss	xmm7, xmm4
	jbe	SHORT $LN21@tri
	movaps	xmm0, xmm4
	movaps	xmm4, xmm7
	movaps	xmm7, xmm0
$LN21@tri:
	movaps	xmm1, xmm11
	movaps	xmm0, xmm3
	mulss	xmm1, DWORD PTR fey0$1$[rsp]
	mulss	xmm0, DWORD PTR fex0$1$[rsp]
	addss	xmm1, xmm0
	comiss	xmm7, xmm1
	ja	$LN10@tri
	xorps	xmm1, xmm2
	comiss	xmm1, xmm4
	ja	$LN10@tri
; File c:\program files (x86)\microsoft visual studio 12.0\vc\include\math.h

; 687  :     return (float)fabs(_X);

	movss	xmm7, DWORD PTR e1$2$[rsp]
	cvtps2pd xmm0, xmm5
	andps	xmm0, QWORD PTR __xmm@7fffffffffffffff7fffffffffffffff
	cvtps2pd xmm1, xmm7
; File c:\x-ray\stcop\rgs\src\xrcdb\xrcdb_box.cpp

; 174  : 			AXISTEST_X01(e1.z, e1.y, fez1, fey1);

	movaps	xmm4, xmm7
; File c:\program files (x86)\microsoft visual studio 12.0\vc\include\math.h

; 687  :     return (float)fabs(_X);

	andps	xmm1, QWORD PTR __xmm@7fffffffffffffff7fffffffffffffff
; File c:\x-ray\stcop\rgs\src\xrcdb\xrcdb_box.cpp

; 174  : 			AXISTEST_X01(e1.z, e1.y, fez1, fey1);

	mulss	xmm4, xmm13
	mulss	xmm7, xmm15
; File c:\program files (x86)\microsoft visual studio 12.0\vc\include\math.h

; 687  :     return (float)fabs(_X);

	cvtpd2ps xmm0, xmm0
	movss	DWORD PTR fey1$1$[rsp], xmm0
	cvtpd2ps xmm0, xmm1
	movss	DWORD PTR fez1$1$[rsp], xmm0
; File c:\x-ray\stcop\rgs\src\xrcdb\xrcdb_box.cpp

; 174  : 			AXISTEST_X01(e1.z, e1.y, fez1, fey1);

	movaps	xmm0, xmm5
	mulss	xmm0, xmm8
	subss	xmm4, xmm0
	movaps	xmm0, xmm5
	mulss	xmm0, xmm6
	subss	xmm7, xmm0
	comiss	xmm4, xmm7
	jbe	SHORT $LN18@tri
	movaps	xmm0, xmm7
	movaps	xmm7, xmm4
	movaps	xmm4, xmm0
$LN18@tri:
	movss	xmm0, DWORD PTR fey1$1$[rsp]
	movaps	xmm1, xmm3
	mulss	xmm1, DWORD PTR fez1$1$[rsp]
	mulss	xmm0, DWORD PTR [rcx+68]
	addss	xmm1, xmm0
	comiss	xmm4, xmm1
	ja	$LN10@tri
	xorps	xmm1, xmm2
	comiss	xmm1, xmm7
	ja	$LN10@tri
; File c:\program files (x86)\microsoft visual studio 12.0\vc\include\math.h

; 687  :     return (float)fabs(_X);

	movss	xmm4, DWORD PTR e1$3$[rsp]
; File c:\x-ray\stcop\rgs\src\xrcdb\xrcdb_box.cpp

; 176  : 			AXISTEST_Y02(e1.z, e1.x, fez1, fex1);

	movss	xmm1, DWORD PTR e1$2$[rsp]
; File c:\program files (x86)\microsoft visual studio 12.0\vc\include\math.h

; 687  :     return (float)fabs(_X);

	cvtps2pd xmm0, xmm4
; File c:\x-ray\stcop\rgs\src\xrcdb\xrcdb_box.cpp

; 176  : 			AXISTEST_Y02(e1.z, e1.x, fez1, fex1);

	movaps	xmm7, xmm4
	mulss	xmm7, xmm8
; File c:\program files (x86)\microsoft visual studio 12.0\vc\include\math.h

; 687  :     return (float)fabs(_X);

	andps	xmm0, QWORD PTR __xmm@7fffffffffffffff7fffffffffffffff
; File c:\x-ray\stcop\rgs\src\xrcdb\xrcdb_box.cpp

; 176  : 			AXISTEST_Y02(e1.z, e1.x, fez1, fex1);

	mulss	xmm4, xmm6
; File c:\program files (x86)\microsoft visual studio 12.0\vc\include\math.h

; 687  :     return (float)fabs(_X);

	cvtpd2ps xmm0, xmm0
	movss	DWORD PTR fex1$1$[rsp], xmm0
; File c:\x-ray\stcop\rgs\src\xrcdb\xrcdb_box.cpp

; 176  : 			AXISTEST_Y02(e1.z, e1.x, fez1, fex1);

	movaps	xmm0, xmm1
	mulss	xmm1, xmm10
	mulss	xmm0, xmm12
	subss	xmm4, xmm1
	subss	xmm7, xmm0
	comiss	xmm7, xmm4
	jbe	SHORT $LN15@tri
	movaps	xmm0, xmm4
	movaps	xmm4, xmm7
	movaps	xmm7, xmm0
$LN15@tri:
	movss	xmm6, DWORD PTR fex1$1$[rsp]
	movaps	xmm1, xmm11
	mulss	xmm1, DWORD PTR fez1$1$[rsp]
	movaps	xmm0, xmm6
	mulss	xmm0, DWORD PTR [rcx+68]
	addss	xmm1, xmm0
	comiss	xmm7, xmm1
	ja	$LN10@tri
	xorps	xmm1, xmm2
	comiss	xmm1, xmm4
	ja	$LN10@tri

; 177  : 			AXISTEST_Z0(e1.y, e1.x, fey1, fex1);

	movss	xmm1, DWORD PTR e1$3$[rsp]
	movaps	xmm4, xmm5
	mulss	xmm5, xmm9
	mulss	xmm4, xmm12
	movaps	xmm0, xmm1
	mulss	xmm0, xmm13
	mulss	xmm1, xmm14
	subss	xmm4, xmm0
	subss	xmm5, xmm1
	comiss	xmm4, xmm5
	jbe	SHORT $LN12@tri
	movaps	xmm0, xmm5
	movaps	xmm5, xmm4
	movaps	xmm4, xmm0
$LN12@tri:
	movaps	xmm0, xmm11
	movaps	xmm1, xmm3
	mulss	xmm0, DWORD PTR fey1$1$[rsp]
	mulss	xmm1, xmm6
	addss	xmm1, xmm0
	comiss	xmm4, xmm1
	ja	$LN10@tri
	xorps	xmm1, xmm2
	comiss	xmm1, xmm5
	ja	$LN10@tri
; File c:\x-ray\stcop\rgs\src\xrcdb\opc_point.h

; 375  : 		inline_	Point			operator-(const Point& p)			const		{ return Point(x - p.x, y - p.y, z - p.z);			}

	movss	xmm4, DWORD PTR [rcx+76]
	movss	xmm13, DWORD PTR [rcx+80]
	movss	xmm7, DWORD PTR [rcx+72]
	subss	xmm4, DWORD PTR [rcx+100]
	subss	xmm13, DWORD PTR [rcx+104]
	subss	xmm7, DWORD PTR [rcx+96]
; File c:\x-ray\stcop\rgs\src\xrcdb\xrcdb_box.cpp

; 182  : 			AXISTEST_X2(e2.z, e2.y, fez2, fey2);

	movaps	xmm6, xmm13
	movaps	xmm5, xmm13
	mulss	xmm6, DWORD PTR v0$2$[rsp]
	mulss	xmm5, xmm14
; File c:\program files (x86)\microsoft visual studio 12.0\vc\include\math.h

; 687  :     return (float)fabs(_X);

	cvtps2pd xmm0, xmm4
	cvtps2pd xmm1, xmm13
	andps	xmm0, QWORD PTR __xmm@7fffffffffffffff7fffffffffffffff
	andps	xmm1, QWORD PTR __xmm@7fffffffffffffff7fffffffffffffff
	cvtpd2ps xmm0, xmm0
	movss	DWORD PTR fey2$1$[rsp], xmm0
	cvtpd2ps xmm0, xmm1
	movss	DWORD PTR fez2$1$[rsp], xmm0
; File c:\x-ray\stcop\rgs\src\xrcdb\xrcdb_box.cpp

; 182  : 			AXISTEST_X2(e2.z, e2.y, fez2, fey2);

	movaps	xmm0, xmm4
	mulss	xmm0, xmm8
	subss	xmm6, xmm0
	movaps	xmm0, xmm4
	mulss	xmm0, DWORD PTR v1$3$[rsp]
	subss	xmm5, xmm0
	comiss	xmm6, xmm5
	jbe	SHORT $LN9@tri
	movaps	xmm0, xmm5
	movaps	xmm5, xmm6
	movaps	xmm6, xmm0
$LN9@tri:
	movss	xmm0, DWORD PTR fey2$1$[rsp]
	movaps	xmm1, xmm3
	mulss	xmm1, DWORD PTR fez2$1$[rsp]
	mulss	xmm0, DWORD PTR [rcx+68]
	addss	xmm1, xmm0
	comiss	xmm6, xmm1
	ja	$LN10@tri
	xorps	xmm1, xmm2
	comiss	xmm1, xmm5
	ja	$LN10@tri
; File c:\program files (x86)\microsoft visual studio 12.0\vc\include\math.h

; 687  :     return (float)fabs(_X);

	cvtps2pd xmm0, xmm7
; File c:\x-ray\stcop\rgs\src\xrcdb\xrcdb_box.cpp

; 184  : 			AXISTEST_Y1(e2.z, e2.x, fez2, fex2);

	movaps	xmm5, xmm7
	movaps	xmm6, xmm7
	mulss	xmm5, DWORD PTR v1$3$[rsp]
	mulss	xmm6, xmm8
; File c:\program files (x86)\microsoft visual studio 12.0\vc\include\math.h

; 687  :     return (float)fabs(_X);

	andps	xmm0, QWORD PTR __xmm@7fffffffffffffff7fffffffffffffff
	cvtpd2ps xmm0, xmm0
	movss	DWORD PTR fex2$1$[rsp], xmm0
; File c:\x-ray\stcop\rgs\src\xrcdb\xrcdb_box.cpp

; 184  : 			AXISTEST_Y1(e2.z, e2.x, fez2, fex2);

	movaps	xmm0, xmm13
	mulss	xmm13, xmm9
	mulss	xmm0, xmm12
	subss	xmm5, xmm13
	subss	xmm6, xmm0
	comiss	xmm6, xmm5
	jbe	SHORT $LN6@tri
	movaps	xmm0, xmm5
	movaps	xmm5, xmm6
	movaps	xmm6, xmm0
$LN6@tri:
	movss	xmm8, DWORD PTR fex2$1$[rsp]
	movaps	xmm1, xmm11
	mulss	xmm1, DWORD PTR fez2$1$[rsp]
	movaps	xmm0, xmm8
	mulss	xmm0, DWORD PTR [rcx+68]
	addss	xmm1, xmm0
	comiss	xmm6, xmm1
	ja	$LN10@tri
	xorps	xmm1, xmm2
	comiss	xmm1, xmm5
	ja	$LN10@tri

; 185  : 			AXISTEST_Z12(e2.y, e2.x, fey2, fex2);

	movaps	xmm1, xmm4
	movaps	xmm0, xmm7
	mulss	xmm4, xmm10
	mulss	xmm1, xmm9
	mulss	xmm0, xmm14
	mulss	xmm7, xmm15
	subss	xmm1, xmm0
	subss	xmm4, xmm7
	comiss	xmm1, xmm4
	jbe	SHORT $LN3@tri
	movaps	xmm0, xmm4
	movaps	xmm4, xmm1
	movaps	xmm1, xmm0
$LN3@tri:
	mulss	xmm11, DWORD PTR fey2$1$[rsp]
	mulss	xmm3, xmm8
	addss	xmm3, xmm11
	comiss	xmm1, xmm3
	ja	SHORT $LN10@tri
	xorps	xmm3, xmm2
	comiss	xmm3, xmm4
	ja	SHORT $LN10@tri

; 186  : 		}
; 187  : 		return true;

	mov	al, 1
$LN338@tri:
	movaps	xmm7, XMMWORD PTR [rsp+176]
$LN62@tri:
	movaps	xmm15, XMMWORD PTR [rsp+48]
	movaps	xmm14, XMMWORD PTR [rsp+64]
	movaps	xmm13, XMMWORD PTR [rsp+80]

; 188  : 	}

	lea	r11, QWORD PTR [rsp+216]
	movaps	xmm9, XMMWORD PTR [r11-72]
	movaps	xmm10, XMMWORD PTR [r11-88]
	movaps	xmm11, XMMWORD PTR [r11-104]
	movaps	xmm12, XMMWORD PTR [r11-120]
	movaps	xmm8, XMMWORD PTR [rsp+160]
	movaps	xmm6, XMMWORD PTR [rsp+192]
	mov	rsp, r11
	ret	0
$LN10@tri:

; 186  : 		}
; 187  : 		return true;

	xor	al, al
	jmp	SHORT $LN338@tri
$LN30@tri:
	xor	al, al
	jmp	SHORT $LN62@tri
?_tri@?$box_collider@$00$0A@@@QEAA_NXZ ENDP		; box_collider<1,0>::_tri
_TEXT	ENDS
; Function compile flags: /Ogtpy
; File c:\x-ray\stcop\rgs\src\xrcdb\xrcdb_box.cpp
; File c:\x-ray\stcop\rgs\src\xrcdb\opc_point.h
; File c:\x-ray\stcop\rgs\src\xrcdb\xrcdb_box.cpp
; File c:\x-ray\stcop\rgs\src\xrcdb\opc_point.h
; File c:\x-ray\stcop\rgs\src\xrcdb\xrcdb_box.cpp
; File c:\x-ray\stcop\rgs\src\xrcdb\opc_point.h
; File c:\x-ray\stcop\rgs\src\xrcdb\xrcdb_box.cpp
; File c:\x-ray\stcop\rgs\src\xrcdb\opc_point.h
; File c:\x-ray\stcop\rgs\src\xrcdb\xrcdb_box.cpp
;	COMDAT ?_tri@?$box_collider@$0A@$00@@QEAA_NXZ
_TEXT	SEGMENT
this$ = 160
?_tri@?$box_collider@$0A@$00@@QEAA_NXZ PROC		; box_collider<0,1>::_tri, COMDAT

; 116  : 	{

$LN340:
	sub	rsp, 152				; 00000098H

; 117  : 		// move everything so that the boxcenter is in (0,0,0) 
; 118  : 		Point v0, v1, v2;
; 119  : 		v0.x = mLeafVerts[0].x - center.x;

	movss	xmm0, DWORD PTR [rcx+48]
	movaps	XMMWORD PTR [rsp+128], xmm6

; 120  : 		v1.x = mLeafVerts[1].x - center.x;
; 121  : 		v2.x = mLeafVerts[2].x - center.x;

	movss	xmm6, DWORD PTR [rcx+96]
	movaps	XMMWORD PTR [rsp+112], xmm7
	movaps	XMMWORD PTR [rsp+80], xmm9
	movss	xmm9, DWORD PTR [rcx+72]
	movss	xmm7, DWORD PTR [rcx+84]
	subss	xmm6, xmm0
	subss	xmm9, xmm0
	subss	xmm7, xmm0

; 122  : 		
; 123  : 		// First, test overlap in the {x,y,z}-directions
; 124  : 		float min,max;
; 125  : 		// Find min, max of the triangle in x-direction, and test for overlap in X
; 126  : 		FINDMINMAX(v0.x, v1.x, v2.x, min, max);

	movaps	xmm1, xmm9
	movaps	xmm0, xmm9
	comiss	xmm9, xmm7
	jbe	SHORT $LN47@tri
	movaps	xmm0, xmm7
$LN47@tri:
	comiss	xmm7, xmm9
	jbe	SHORT $LN46@tri
	movaps	xmm1, xmm7
$LN46@tri:
	comiss	xmm0, xmm6
	jbe	SHORT $LN45@tri
	movaps	xmm0, xmm6
$LN45@tri:
	comiss	xmm6, xmm1
	jbe	SHORT $LN44@tri
	movaps	xmm1, xmm6
$LN44@tri:

; 127  : 		if(min>extents.x || max<-extents.x) return false;

	movss	xmm2, DWORD PTR [rcx+60]
	movaps	XMMWORD PTR [rsp+96], xmm8
	movaps	XMMWORD PTR [rsp+64], xmm10
	comiss	xmm0, xmm2
	movaps	XMMWORD PTR [rsp+48], xmm11
	movaps	XMMWORD PTR [rsp+32], xmm12
	movaps	XMMWORD PTR [rsp+16], xmm13
	ja	$LN30@tri
	movss	xmm5, DWORD PTR __xmm@80000000800000008000000080000000
	xorps	xmm2, xmm5
	comiss	xmm2, xmm1
	ja	$LN30@tri

; 128  : 		
; 129  : 		// Same for Y
; 130  : 		v0.y = mLeafVerts[0].y - center.y;

	movss	xmm0, DWORD PTR [rcx+52]
	movss	xmm12, DWORD PTR [rcx+76]

; 131  : 		v1.y = mLeafVerts[1].y - center.y;

	movss	xmm10, DWORD PTR [rcx+88]

; 132  : 		v2.y = mLeafVerts[2].y - center.y;

	movss	xmm4, DWORD PTR [rcx+100]
	subss	xmm12, xmm0
	subss	xmm10, xmm0

; 133  : 		
; 134  : 		FINDMINMAX(v0.y, v1.y, v2.y, min, max);

	movaps	xmm2, xmm12
	movaps	xmm1, xmm12
	comiss	xmm12, xmm10
	subss	xmm4, xmm0
	jbe	SHORT $LN41@tri
	movaps	xmm1, xmm10
$LN41@tri:
	comiss	xmm10, xmm12
	jbe	SHORT $LN40@tri
	movaps	xmm2, xmm10
$LN40@tri:
	comiss	xmm1, xmm4
	jbe	SHORT $LN39@tri
	movaps	xmm1, xmm4
$LN39@tri:
	comiss	xmm4, xmm2
	jbe	SHORT $LN38@tri
	movaps	xmm2, xmm4
$LN38@tri:

; 135  : 		if(min>extents.y || max<-extents.y) return false;

	movss	xmm0, DWORD PTR [rcx+64]
	comiss	xmm1, xmm0
	ja	$LN30@tri
	xorps	xmm0, xmm5
	comiss	xmm0, xmm2
	ja	$LN30@tri

; 136  : 		
; 137  : 		// Same for Z
; 138  : 		v0.z = mLeafVerts[0].z - center.z;

	movss	xmm0, DWORD PTR [rcx+56]
	movss	xmm13, DWORD PTR [rcx+80]

; 139  : 		v1.z = mLeafVerts[1].z - center.z;

	movss	xmm11, DWORD PTR [rcx+92]

; 140  : 		v2.z = mLeafVerts[2].z - center.z;

	movss	xmm8, DWORD PTR [rcx+104]
	subss	xmm13, xmm0
	subss	xmm11, xmm0

; 141  : 		
; 142  : 		FINDMINMAX(v0.z, v1.z, v2.z, min, max);

	movaps	xmm2, xmm13
	movaps	xmm1, xmm13
	comiss	xmm13, xmm11
	subss	xmm8, xmm0
	jbe	SHORT $LN35@tri
	movaps	xmm1, xmm11
$LN35@tri:
	comiss	xmm11, xmm13
	jbe	SHORT $LN34@tri
	movaps	xmm2, xmm11
$LN34@tri:
	comiss	xmm1, xmm8
	jbe	SHORT $LN33@tri
	movaps	xmm1, xmm8
$LN33@tri:
	comiss	xmm8, xmm2
	jbe	SHORT $LN32@tri
	movaps	xmm2, xmm8
$LN32@tri:

; 143  : 		if(min>extents.z || max<-extents.z) return false;

	movss	xmm0, DWORD PTR [rcx+68]
	comiss	xmm1, xmm0
	ja	$LN30@tri
	xorps	xmm0, xmm5
	comiss	xmm0, xmm2
	ja	$LN30@tri
; File c:\x-ray\stcop\rgs\src\xrcdb\opc_point.h

; 375  : 		inline_	Point			operator-(const Point& p)			const		{ return Point(x - p.x, y - p.y, z - p.z);			}

	subss	xmm8, xmm11
	movaps	xmm1, xmm11
	subss	xmm4, xmm10
	movaps	xmm2, xmm10
	movaps	XMMWORD PTR [rsp], xmm14
	movaps	xmm3, xmm7
	subss	xmm1, xmm13
	subss	xmm6, xmm7
	subss	xmm3, xmm9

; 393  : 		//! Operator for Point VecProd = Point ^ Point.
; 394  : 		ICF		Point			operator^(const Point& p)			const
; 395  : 								{
; 396  : 									return Point(
; 397  : 									y * p.z - z * p.y,
; 398  : 									z * p.x - x * p.z,
; 399  : 									x * p.y - y * p.x );

	movaps	xmm14, xmm8
	movaps	xmm0, xmm4
	movaps	xmm10, xmm6
	mulss	xmm8, xmm3
	mulss	xmm4, xmm3
	mulss	xmm0, xmm1
	mulss	xmm10, xmm1

; 375  : 		inline_	Point			operator-(const Point& p)			const		{ return Point(x - p.x, y - p.y, z - p.z);			}

	subss	xmm2, xmm12

; 393  : 		//! Operator for Point VecProd = Point ^ Point.
; 394  : 		ICF		Point			operator^(const Point& p)			const
; 395  : 								{
; 396  : 									return Point(
; 397  : 									y * p.z - z * p.y,
; 398  : 									z * p.x - x * p.z,
; 399  : 									x * p.y - y * p.x );

	subss	xmm10, xmm8
	mulss	xmm14, xmm2
	mulss	xmm6, xmm2
	xorps	xmm8, xmm8

; 370  : 		inline_	Point			operator-()							const		{ return Point(-x, -y, -z);							}

	movaps	xmm11, xmm10

; 393  : 		//! Operator for Point VecProd = Point ^ Point.
; 394  : 		ICF		Point			operator^(const Point& p)			const
; 395  : 								{
; 396  : 									return Point(
; 397  : 									y * p.z - z * p.y,
; 398  : 									z * p.x - x * p.z,
; 399  : 									x * p.y - y * p.x );

	subss	xmm14, xmm0
	subss	xmm4, xmm6

; 370  : 		inline_	Point			operator-()							const		{ return Point(-x, -y, -z);							}

	xorps	xmm11, xmm5
	movaps	xmm1, xmm14
	xorps	xmm1, xmm5
; File c:\x-ray\stcop\rgs\src\xrcdb\xrcdb_box.cpp

; 24   : 		if(((const float*)normal)[q]>0.0f)	{ ((float*)vmin)[q]=-((const float*)maxbox)[q]; ((float*)vmax)[q]=((const float*)maxbox)[q]; }

	comiss	xmm14, xmm8
; File c:\x-ray\stcop\rgs\src\xrcdb\opc_point.h

; 370  : 		inline_	Point			operator-()							const		{ return Point(-x, -y, -z);							}

	movaps	xmm0, xmm4

; 392  : 		inline_	float			operator|(const Point& p)			const		{ return x*p.x + y*p.y + z*p.z;						}

	mulss	xmm11, xmm12
	mulss	xmm1, xmm9

; 370  : 		inline_	Point			operator-()							const		{ return Point(-x, -y, -z);							}

	xorps	xmm0, xmm5

; 392  : 		inline_	float			operator|(const Point& p)			const		{ return x*p.x + y*p.y + z*p.z;						}

	addss	xmm11, xmm1
	mulss	xmm0, xmm13
	addss	xmm11, xmm0
; File c:\x-ray\stcop\rgs\src\xrcdb\xrcdb_box.cpp

; 24   : 		if(((const float*)normal)[q]>0.0f)	{ ((float*)vmin)[q]=-((const float*)maxbox)[q]; ((float*)vmax)[q]=((const float*)maxbox)[q]; }

	jbe	SHORT $LN104@tri
	movss	xmm2, DWORD PTR [rcx+60]
	movaps	xmm3, xmm2
	xorps	xmm3, xmm5

; 25   : 		else								{ ((float*)vmin)[q]=((const float*)maxbox)[q]; ((float*)vmax)[q]=-((const float*)maxbox)[q]; }

	jmp	SHORT $LN106@tri
$LN104@tri:
	movss	xmm3, DWORD PTR [rcx+60]
	movaps	xmm2, xmm3
	xorps	xmm2, xmm5
$LN106@tri:

; 24   : 		if(((const float*)normal)[q]>0.0f)	{ ((float*)vmin)[q]=-((const float*)maxbox)[q]; ((float*)vmax)[q]=((const float*)maxbox)[q]; }

	comiss	xmm10, xmm8
	jbe	SHORT $LN332@tri
	movss	xmm0, DWORD PTR [rcx+64]
	movaps	xmm1, xmm0
	xorps	xmm1, xmm5

; 25   : 		else								{ ((float*)vmin)[q]=((const float*)maxbox)[q]; ((float*)vmax)[q]=-((const float*)maxbox)[q]; }

	jmp	SHORT $LN333@tri
$LN332@tri:
	movss	xmm1, DWORD PTR [rcx+64]
	movaps	xmm0, xmm1
	xorps	xmm0, xmm5
$LN333@tri:

; 24   : 		if(((const float*)normal)[q]>0.0f)	{ ((float*)vmin)[q]=-((const float*)maxbox)[q]; ((float*)vmax)[q]=((const float*)maxbox)[q]; }

	comiss	xmm4, xmm8
	jbe	SHORT $LN335@tri
	movss	xmm6, DWORD PTR [rcx+68]
	movaps	xmm7, xmm6
	xorps	xmm7, xmm5

; 25   : 		else								{ ((float*)vmin)[q]=((const float*)maxbox)[q]; ((float*)vmax)[q]=-((const float*)maxbox)[q]; }

	jmp	SHORT $LN336@tri
$LN335@tri:
	movss	xmm7, DWORD PTR [rcx+68]
	movaps	xmm6, xmm7
	xorps	xmm6, xmm5
$LN336@tri:
; File c:\x-ray\stcop\rgs\src\xrcdb\opc_point.h

; 392  : 		inline_	float			operator|(const Point& p)			const		{ return x*p.x + y*p.y + z*p.z;						}

	mulss	xmm1, xmm10
	mulss	xmm3, xmm14
	mulss	xmm7, xmm4
	addss	xmm1, xmm3
	addss	xmm1, xmm7
; File c:\x-ray\stcop\rgs\src\xrcdb\xrcdb_box.cpp

; 27   : 	if((normal|vmin)+d>0.0f) return false;

	addss	xmm1, xmm11
	comiss	xmm1, xmm8
	ja	SHORT $LN337@tri
; File c:\x-ray\stcop\rgs\src\xrcdb\opc_point.h

; 392  : 		inline_	float			operator|(const Point& p)			const		{ return x*p.x + y*p.y + z*p.z;						}

	mulss	xmm0, xmm10
	mulss	xmm2, xmm14
	mulss	xmm6, xmm4
	addss	xmm0, xmm2
	addss	xmm0, xmm6
; File c:\x-ray\stcop\rgs\src\xrcdb\xrcdb_box.cpp

; 28   : 	if((normal|vmax)+d>=0.0f) return true;

	addss	xmm0, xmm11
	comiss	xmm0, xmm8
	jb	SHORT $LN337@tri

; 144  : 		
; 145  : 		// 2) Test if the box intersects the plane of the triangle
; 146  : 		// compute plane equation of triangle: normal*x+d=0
; 147  : 		// ### could be precomputed since we use the same leaf triangle several times
; 148  : 		const Point e0 = v1 - v0;
; 149  : 		const Point e1 = v2 - v1;
; 150  : 		const Point normal = e0 ^ e1;
; 151  : 		const float d = -normal|v0;
; 152  : 		if(!planeBoxOverlap(normal, d, extents)) return false;
; 153  : 		
; 154  : 		// 3) "Class III" tests
; 155  : 		if(bClass3)
; 156  : 		{
; 157  : 			float rad;
; 158  : 			float min, max;
; 159  : 			// compute triangle edges
; 160  : 			// - edges lazy evaluated to take advantage of early exits
; 161  : 			// - fabs precomputed (half less work, possible since extents are always >0)
; 162  : 			// - customized macros to take advantage of the null component
; 163  : 			// - axis vector3 discarded, possibly saves useless movs
; 164  : 			
; 165  : 			const float fey0 = _abs(e0.y);
; 166  : 			const float fez0 = _abs(e0.z);
; 167  : 			AXISTEST_X01(e0.z, e0.y, fez0, fey0);
; 168  : 			const float fex0 = _abs(e0.x);
; 169  : 			AXISTEST_Y02(e0.z, e0.x, fez0, fex0);
; 170  : 			AXISTEST_Z12(e0.y, e0.x, fey0, fex0);
; 171  : 			
; 172  : 			const float fey1 = _abs(e1.y);
; 173  : 			const float fez1 = _abs(e1.z);
; 174  : 			AXISTEST_X01(e1.z, e1.y, fez1, fey1);
; 175  : 			const float fex1 = _abs(e1.x);
; 176  : 			AXISTEST_Y02(e1.z, e1.x, fez1, fex1);
; 177  : 			AXISTEST_Z0(e1.y, e1.x, fey1, fex1);
; 178  : 			
; 179  : 			const Point e2 = mLeafVerts[0] - mLeafVerts[2];
; 180  : 			const float fey2 = _abs(e2.y);
; 181  : 			const float fez2 = _abs(e2.z);
; 182  : 			AXISTEST_X2(e2.z, e2.y, fez2, fey2);
; 183  : 			const float fex2 = _abs(e2.x);
; 184  : 			AXISTEST_Y1(e2.z, e2.x, fez2, fex2);
; 185  : 			AXISTEST_Z12(e2.y, e2.x, fey2, fex2);
; 186  : 		}
; 187  : 		return true;

	mov	al, 1
$LN338@tri:
	movaps	xmm14, XMMWORD PTR [rsp]
$LN62@tri:
	movaps	xmm13, XMMWORD PTR [rsp+16]
	movaps	xmm12, XMMWORD PTR [rsp+32]
	movaps	xmm11, XMMWORD PTR [rsp+48]
	movaps	xmm10, XMMWORD PTR [rsp+64]
	movaps	xmm8, XMMWORD PTR [rsp+96]

; 188  : 	}

	movaps	xmm6, XMMWORD PTR [rsp+128]
	movaps	xmm7, XMMWORD PTR [rsp+112]
	movaps	xmm9, XMMWORD PTR [rsp+80]
	add	rsp, 152				; 00000098H
	ret	0
$LN337@tri:

; 144  : 		
; 145  : 		// 2) Test if the box intersects the plane of the triangle
; 146  : 		// compute plane equation of triangle: normal*x+d=0
; 147  : 		// ### could be precomputed since we use the same leaf triangle several times
; 148  : 		const Point e0 = v1 - v0;
; 149  : 		const Point e1 = v2 - v1;
; 150  : 		const Point normal = e0 ^ e1;
; 151  : 		const float d = -normal|v0;
; 152  : 		if(!planeBoxOverlap(normal, d, extents)) return false;
; 153  : 		
; 154  : 		// 3) "Class III" tests
; 155  : 		if(bClass3)
; 156  : 		{
; 157  : 			float rad;
; 158  : 			float min, max;
; 159  : 			// compute triangle edges
; 160  : 			// - edges lazy evaluated to take advantage of early exits
; 161  : 			// - fabs precomputed (half less work, possible since extents are always >0)
; 162  : 			// - customized macros to take advantage of the null component
; 163  : 			// - axis vector3 discarded, possibly saves useless movs
; 164  : 			
; 165  : 			const float fey0 = _abs(e0.y);
; 166  : 			const float fez0 = _abs(e0.z);
; 167  : 			AXISTEST_X01(e0.z, e0.y, fez0, fey0);
; 168  : 			const float fex0 = _abs(e0.x);
; 169  : 			AXISTEST_Y02(e0.z, e0.x, fez0, fex0);
; 170  : 			AXISTEST_Z12(e0.y, e0.x, fey0, fex0);
; 171  : 			
; 172  : 			const float fey1 = _abs(e1.y);
; 173  : 			const float fez1 = _abs(e1.z);
; 174  : 			AXISTEST_X01(e1.z, e1.y, fez1, fey1);
; 175  : 			const float fex1 = _abs(e1.x);
; 176  : 			AXISTEST_Y02(e1.z, e1.x, fez1, fex1);
; 177  : 			AXISTEST_Z0(e1.y, e1.x, fey1, fex1);
; 178  : 			
; 179  : 			const Point e2 = mLeafVerts[0] - mLeafVerts[2];
; 180  : 			const float fey2 = _abs(e2.y);
; 181  : 			const float fez2 = _abs(e2.z);
; 182  : 			AXISTEST_X2(e2.z, e2.y, fez2, fey2);
; 183  : 			const float fex2 = _abs(e2.x);
; 184  : 			AXISTEST_Y1(e2.z, e2.x, fez2, fex2);
; 185  : 			AXISTEST_Z12(e2.y, e2.x, fey2, fex2);
; 186  : 		}
; 187  : 		return true;

	xor	al, al
	jmp	SHORT $LN338@tri
$LN30@tri:
	xor	al, al
	jmp	SHORT $LN62@tri
?_tri@?$box_collider@$0A@$00@@QEAA_NXZ ENDP		; box_collider<0,1>::_tri
_TEXT	ENDS
; Function compile flags: /Ogtpy
; File c:\x-ray\stcop\rgs\src\xrcdb\xrcdb_box.cpp
; File c:\x-ray\stcop\rgs\src\xrcdb\opc_point.h
; File c:\x-ray\stcop\rgs\src\xrcdb\xrcdb_box.cpp
; File c:\x-ray\stcop\rgs\src\xrcdb\opc_point.h
; File c:\x-ray\stcop\rgs\src\xrcdb\xrcdb_box.cpp
; File c:\x-ray\stcop\rgs\src\xrcdb\opc_point.h
; File c:\x-ray\stcop\rgs\src\xrcdb\xrcdb_box.cpp
; File c:\x-ray\stcop\rgs\src\xrcdb\opc_point.h
; File c:\x-ray\stcop\rgs\src\xrcdb\xrcdb_box.cpp
;	COMDAT ?_tri@?$box_collider@$0A@$0A@@@QEAA_NXZ
_TEXT	SEGMENT
this$ = 160
?_tri@?$box_collider@$0A@$0A@@@QEAA_NXZ PROC		; box_collider<0,0>::_tri, COMDAT

; 116  : 	{

$LN340:
	sub	rsp, 152				; 00000098H

; 117  : 		// move everything so that the boxcenter is in (0,0,0) 
; 118  : 		Point v0, v1, v2;
; 119  : 		v0.x = mLeafVerts[0].x - center.x;

	movss	xmm0, DWORD PTR [rcx+48]
	movaps	XMMWORD PTR [rsp+128], xmm6

; 120  : 		v1.x = mLeafVerts[1].x - center.x;
; 121  : 		v2.x = mLeafVerts[2].x - center.x;

	movss	xmm6, DWORD PTR [rcx+96]
	movaps	XMMWORD PTR [rsp+112], xmm7
	movaps	XMMWORD PTR [rsp+80], xmm9
	movss	xmm9, DWORD PTR [rcx+72]
	movss	xmm7, DWORD PTR [rcx+84]
	subss	xmm6, xmm0
	subss	xmm9, xmm0
	subss	xmm7, xmm0

; 122  : 		
; 123  : 		// First, test overlap in the {x,y,z}-directions
; 124  : 		float min,max;
; 125  : 		// Find min, max of the triangle in x-direction, and test for overlap in X
; 126  : 		FINDMINMAX(v0.x, v1.x, v2.x, min, max);

	movaps	xmm1, xmm9
	movaps	xmm0, xmm9
	comiss	xmm9, xmm7
	jbe	SHORT $LN47@tri
	movaps	xmm0, xmm7
$LN47@tri:
	comiss	xmm7, xmm9
	jbe	SHORT $LN46@tri
	movaps	xmm1, xmm7
$LN46@tri:
	comiss	xmm0, xmm6
	jbe	SHORT $LN45@tri
	movaps	xmm0, xmm6
$LN45@tri:
	comiss	xmm6, xmm1
	jbe	SHORT $LN44@tri
	movaps	xmm1, xmm6
$LN44@tri:

; 127  : 		if(min>extents.x || max<-extents.x) return false;

	movss	xmm2, DWORD PTR [rcx+60]
	movaps	XMMWORD PTR [rsp+96], xmm8
	movaps	XMMWORD PTR [rsp+64], xmm10
	comiss	xmm0, xmm2
	movaps	XMMWORD PTR [rsp+48], xmm11
	movaps	XMMWORD PTR [rsp+32], xmm12
	movaps	XMMWORD PTR [rsp+16], xmm13
	ja	$LN30@tri
	movss	xmm5, DWORD PTR __xmm@80000000800000008000000080000000
	xorps	xmm2, xmm5
	comiss	xmm2, xmm1
	ja	$LN30@tri

; 128  : 		
; 129  : 		// Same for Y
; 130  : 		v0.y = mLeafVerts[0].y - center.y;

	movss	xmm0, DWORD PTR [rcx+52]
	movss	xmm12, DWORD PTR [rcx+76]

; 131  : 		v1.y = mLeafVerts[1].y - center.y;

	movss	xmm10, DWORD PTR [rcx+88]

; 132  : 		v2.y = mLeafVerts[2].y - center.y;

	movss	xmm4, DWORD PTR [rcx+100]
	subss	xmm12, xmm0
	subss	xmm10, xmm0

; 133  : 		
; 134  : 		FINDMINMAX(v0.y, v1.y, v2.y, min, max);

	movaps	xmm2, xmm12
	movaps	xmm1, xmm12
	comiss	xmm12, xmm10
	subss	xmm4, xmm0
	jbe	SHORT $LN41@tri
	movaps	xmm1, xmm10
$LN41@tri:
	comiss	xmm10, xmm12
	jbe	SHORT $LN40@tri
	movaps	xmm2, xmm10
$LN40@tri:
	comiss	xmm1, xmm4
	jbe	SHORT $LN39@tri
	movaps	xmm1, xmm4
$LN39@tri:
	comiss	xmm4, xmm2
	jbe	SHORT $LN38@tri
	movaps	xmm2, xmm4
$LN38@tri:

; 135  : 		if(min>extents.y || max<-extents.y) return false;

	movss	xmm0, DWORD PTR [rcx+64]
	comiss	xmm1, xmm0
	ja	$LN30@tri
	xorps	xmm0, xmm5
	comiss	xmm0, xmm2
	ja	$LN30@tri

; 136  : 		
; 137  : 		// Same for Z
; 138  : 		v0.z = mLeafVerts[0].z - center.z;

	movss	xmm0, DWORD PTR [rcx+56]
	movss	xmm13, DWORD PTR [rcx+80]

; 139  : 		v1.z = mLeafVerts[1].z - center.z;

	movss	xmm11, DWORD PTR [rcx+92]

; 140  : 		v2.z = mLeafVerts[2].z - center.z;

	movss	xmm8, DWORD PTR [rcx+104]
	subss	xmm13, xmm0
	subss	xmm11, xmm0

; 141  : 		
; 142  : 		FINDMINMAX(v0.z, v1.z, v2.z, min, max);

	movaps	xmm2, xmm13
	movaps	xmm1, xmm13
	comiss	xmm13, xmm11
	subss	xmm8, xmm0
	jbe	SHORT $LN35@tri
	movaps	xmm1, xmm11
$LN35@tri:
	comiss	xmm11, xmm13
	jbe	SHORT $LN34@tri
	movaps	xmm2, xmm11
$LN34@tri:
	comiss	xmm1, xmm8
	jbe	SHORT $LN33@tri
	movaps	xmm1, xmm8
$LN33@tri:
	comiss	xmm8, xmm2
	jbe	SHORT $LN32@tri
	movaps	xmm2, xmm8
$LN32@tri:

; 143  : 		if(min>extents.z || max<-extents.z) return false;

	movss	xmm0, DWORD PTR [rcx+68]
	comiss	xmm1, xmm0
	ja	$LN30@tri
	xorps	xmm0, xmm5
	comiss	xmm0, xmm2
	ja	$LN30@tri
; File c:\x-ray\stcop\rgs\src\xrcdb\opc_point.h

; 375  : 		inline_	Point			operator-(const Point& p)			const		{ return Point(x - p.x, y - p.y, z - p.z);			}

	subss	xmm8, xmm11
	movaps	xmm1, xmm11
	subss	xmm4, xmm10
	movaps	xmm2, xmm10
	movaps	XMMWORD PTR [rsp], xmm14
	movaps	xmm3, xmm7
	subss	xmm1, xmm13
	subss	xmm6, xmm7
	subss	xmm3, xmm9

; 393  : 		//! Operator for Point VecProd = Point ^ Point.
; 394  : 		ICF		Point			operator^(const Point& p)			const
; 395  : 								{
; 396  : 									return Point(
; 397  : 									y * p.z - z * p.y,
; 398  : 									z * p.x - x * p.z,
; 399  : 									x * p.y - y * p.x );

	movaps	xmm14, xmm8
	movaps	xmm0, xmm4
	movaps	xmm10, xmm6
	mulss	xmm8, xmm3
	mulss	xmm4, xmm3
	mulss	xmm0, xmm1
	mulss	xmm10, xmm1

; 375  : 		inline_	Point			operator-(const Point& p)			const		{ return Point(x - p.x, y - p.y, z - p.z);			}

	subss	xmm2, xmm12

; 393  : 		//! Operator for Point VecProd = Point ^ Point.
; 394  : 		ICF		Point			operator^(const Point& p)			const
; 395  : 								{
; 396  : 									return Point(
; 397  : 									y * p.z - z * p.y,
; 398  : 									z * p.x - x * p.z,
; 399  : 									x * p.y - y * p.x );

	subss	xmm10, xmm8
	mulss	xmm14, xmm2
	mulss	xmm6, xmm2
	xorps	xmm8, xmm8

; 370  : 		inline_	Point			operator-()							const		{ return Point(-x, -y, -z);							}

	movaps	xmm11, xmm10

; 393  : 		//! Operator for Point VecProd = Point ^ Point.
; 394  : 		ICF		Point			operator^(const Point& p)			const
; 395  : 								{
; 396  : 									return Point(
; 397  : 									y * p.z - z * p.y,
; 398  : 									z * p.x - x * p.z,
; 399  : 									x * p.y - y * p.x );

	subss	xmm14, xmm0
	subss	xmm4, xmm6

; 370  : 		inline_	Point			operator-()							const		{ return Point(-x, -y, -z);							}

	xorps	xmm11, xmm5
	movaps	xmm1, xmm14
	xorps	xmm1, xmm5
; File c:\x-ray\stcop\rgs\src\xrcdb\xrcdb_box.cpp

; 24   : 		if(((const float*)normal)[q]>0.0f)	{ ((float*)vmin)[q]=-((const float*)maxbox)[q]; ((float*)vmax)[q]=((const float*)maxbox)[q]; }

	comiss	xmm14, xmm8
; File c:\x-ray\stcop\rgs\src\xrcdb\opc_point.h

; 370  : 		inline_	Point			operator-()							const		{ return Point(-x, -y, -z);							}

	movaps	xmm0, xmm4

; 392  : 		inline_	float			operator|(const Point& p)			const		{ return x*p.x + y*p.y + z*p.z;						}

	mulss	xmm11, xmm12
	mulss	xmm1, xmm9

; 370  : 		inline_	Point			operator-()							const		{ return Point(-x, -y, -z);							}

	xorps	xmm0, xmm5

; 392  : 		inline_	float			operator|(const Point& p)			const		{ return x*p.x + y*p.y + z*p.z;						}

	addss	xmm11, xmm1
	mulss	xmm0, xmm13
	addss	xmm11, xmm0
; File c:\x-ray\stcop\rgs\src\xrcdb\xrcdb_box.cpp

; 24   : 		if(((const float*)normal)[q]>0.0f)	{ ((float*)vmin)[q]=-((const float*)maxbox)[q]; ((float*)vmax)[q]=((const float*)maxbox)[q]; }

	jbe	SHORT $LN104@tri
	movss	xmm2, DWORD PTR [rcx+60]
	movaps	xmm3, xmm2
	xorps	xmm3, xmm5

; 25   : 		else								{ ((float*)vmin)[q]=((const float*)maxbox)[q]; ((float*)vmax)[q]=-((const float*)maxbox)[q]; }

	jmp	SHORT $LN106@tri
$LN104@tri:
	movss	xmm3, DWORD PTR [rcx+60]
	movaps	xmm2, xmm3
	xorps	xmm2, xmm5
$LN106@tri:

; 24   : 		if(((const float*)normal)[q]>0.0f)	{ ((float*)vmin)[q]=-((const float*)maxbox)[q]; ((float*)vmax)[q]=((const float*)maxbox)[q]; }

	comiss	xmm10, xmm8
	jbe	SHORT $LN332@tri
	movss	xmm0, DWORD PTR [rcx+64]
	movaps	xmm1, xmm0
	xorps	xmm1, xmm5

; 25   : 		else								{ ((float*)vmin)[q]=((const float*)maxbox)[q]; ((float*)vmax)[q]=-((const float*)maxbox)[q]; }

	jmp	SHORT $LN333@tri
$LN332@tri:
	movss	xmm1, DWORD PTR [rcx+64]
	movaps	xmm0, xmm1
	xorps	xmm0, xmm5
$LN333@tri:

; 24   : 		if(((const float*)normal)[q]>0.0f)	{ ((float*)vmin)[q]=-((const float*)maxbox)[q]; ((float*)vmax)[q]=((const float*)maxbox)[q]; }

	comiss	xmm4, xmm8
	jbe	SHORT $LN335@tri
	movss	xmm6, DWORD PTR [rcx+68]
	movaps	xmm7, xmm6
	xorps	xmm7, xmm5

; 25   : 		else								{ ((float*)vmin)[q]=((const float*)maxbox)[q]; ((float*)vmax)[q]=-((const float*)maxbox)[q]; }

	jmp	SHORT $LN336@tri
$LN335@tri:
	movss	xmm7, DWORD PTR [rcx+68]
	movaps	xmm6, xmm7
	xorps	xmm6, xmm5
$LN336@tri:
; File c:\x-ray\stcop\rgs\src\xrcdb\opc_point.h

; 392  : 		inline_	float			operator|(const Point& p)			const		{ return x*p.x + y*p.y + z*p.z;						}

	mulss	xmm1, xmm10
	mulss	xmm3, xmm14
	mulss	xmm7, xmm4
	addss	xmm1, xmm3
	addss	xmm1, xmm7
; File c:\x-ray\stcop\rgs\src\xrcdb\xrcdb_box.cpp

; 27   : 	if((normal|vmin)+d>0.0f) return false;

	addss	xmm1, xmm11
	comiss	xmm1, xmm8
	ja	SHORT $LN337@tri
; File c:\x-ray\stcop\rgs\src\xrcdb\opc_point.h

; 392  : 		inline_	float			operator|(const Point& p)			const		{ return x*p.x + y*p.y + z*p.z;						}

	mulss	xmm0, xmm10
	mulss	xmm2, xmm14
	mulss	xmm6, xmm4
	addss	xmm0, xmm2
	addss	xmm0, xmm6
; File c:\x-ray\stcop\rgs\src\xrcdb\xrcdb_box.cpp

; 28   : 	if((normal|vmax)+d>=0.0f) return true;

	addss	xmm0, xmm11
	comiss	xmm0, xmm8
	jb	SHORT $LN337@tri

; 144  : 		
; 145  : 		// 2) Test if the box intersects the plane of the triangle
; 146  : 		// compute plane equation of triangle: normal*x+d=0
; 147  : 		// ### could be precomputed since we use the same leaf triangle several times
; 148  : 		const Point e0 = v1 - v0;
; 149  : 		const Point e1 = v2 - v1;
; 150  : 		const Point normal = e0 ^ e1;
; 151  : 		const float d = -normal|v0;
; 152  : 		if(!planeBoxOverlap(normal, d, extents)) return false;
; 153  : 		
; 154  : 		// 3) "Class III" tests
; 155  : 		if(bClass3)
; 156  : 		{
; 157  : 			float rad;
; 158  : 			float min, max;
; 159  : 			// compute triangle edges
; 160  : 			// - edges lazy evaluated to take advantage of early exits
; 161  : 			// - fabs precomputed (half less work, possible since extents are always >0)
; 162  : 			// - customized macros to take advantage of the null component
; 163  : 			// - axis vector3 discarded, possibly saves useless movs
; 164  : 			
; 165  : 			const float fey0 = _abs(e0.y);
; 166  : 			const float fez0 = _abs(e0.z);
; 167  : 			AXISTEST_X01(e0.z, e0.y, fez0, fey0);
; 168  : 			const float fex0 = _abs(e0.x);
; 169  : 			AXISTEST_Y02(e0.z, e0.x, fez0, fex0);
; 170  : 			AXISTEST_Z12(e0.y, e0.x, fey0, fex0);
; 171  : 			
; 172  : 			const float fey1 = _abs(e1.y);
; 173  : 			const float fez1 = _abs(e1.z);
; 174  : 			AXISTEST_X01(e1.z, e1.y, fez1, fey1);
; 175  : 			const float fex1 = _abs(e1.x);
; 176  : 			AXISTEST_Y02(e1.z, e1.x, fez1, fex1);
; 177  : 			AXISTEST_Z0(e1.y, e1.x, fey1, fex1);
; 178  : 			
; 179  : 			const Point e2 = mLeafVerts[0] - mLeafVerts[2];
; 180  : 			const float fey2 = _abs(e2.y);
; 181  : 			const float fez2 = _abs(e2.z);
; 182  : 			AXISTEST_X2(e2.z, e2.y, fez2, fey2);
; 183  : 			const float fex2 = _abs(e2.x);
; 184  : 			AXISTEST_Y1(e2.z, e2.x, fez2, fex2);
; 185  : 			AXISTEST_Z12(e2.y, e2.x, fey2, fex2);
; 186  : 		}
; 187  : 		return true;

	mov	al, 1
$LN338@tri:
	movaps	xmm14, XMMWORD PTR [rsp]
$LN62@tri:
	movaps	xmm13, XMMWORD PTR [rsp+16]
	movaps	xmm12, XMMWORD PTR [rsp+32]
	movaps	xmm11, XMMWORD PTR [rsp+48]
	movaps	xmm10, XMMWORD PTR [rsp+64]
	movaps	xmm8, XMMWORD PTR [rsp+96]

; 188  : 	}

	movaps	xmm6, XMMWORD PTR [rsp+128]
	movaps	xmm7, XMMWORD PTR [rsp+112]
	movaps	xmm9, XMMWORD PTR [rsp+80]
	add	rsp, 152				; 00000098H
	ret	0
$LN337@tri:

; 144  : 		
; 145  : 		// 2) Test if the box intersects the plane of the triangle
; 146  : 		// compute plane equation of triangle: normal*x+d=0
; 147  : 		// ### could be precomputed since we use the same leaf triangle several times
; 148  : 		const Point e0 = v1 - v0;
; 149  : 		const Point e1 = v2 - v1;
; 150  : 		const Point normal = e0 ^ e1;
; 151  : 		const float d = -normal|v0;
; 152  : 		if(!planeBoxOverlap(normal, d, extents)) return false;
; 153  : 		
; 154  : 		// 3) "Class III" tests
; 155  : 		if(bClass3)
; 156  : 		{
; 157  : 			float rad;
; 158  : 			float min, max;
; 159  : 			// compute triangle edges
; 160  : 			// - edges lazy evaluated to take advantage of early exits
; 161  : 			// - fabs precomputed (half less work, possible since extents are always >0)
; 162  : 			// - customized macros to take advantage of the null component
; 163  : 			// - axis vector3 discarded, possibly saves useless movs
; 164  : 			
; 165  : 			const float fey0 = _abs(e0.y);
; 166  : 			const float fez0 = _abs(e0.z);
; 167  : 			AXISTEST_X01(e0.z, e0.y, fez0, fey0);
; 168  : 			const float fex0 = _abs(e0.x);
; 169  : 			AXISTEST_Y02(e0.z, e0.x, fez0, fex0);
; 170  : 			AXISTEST_Z12(e0.y, e0.x, fey0, fex0);
; 171  : 			
; 172  : 			const float fey1 = _abs(e1.y);
; 173  : 			const float fez1 = _abs(e1.z);
; 174  : 			AXISTEST_X01(e1.z, e1.y, fez1, fey1);
; 175  : 			const float fex1 = _abs(e1.x);
; 176  : 			AXISTEST_Y02(e1.z, e1.x, fez1, fex1);
; 177  : 			AXISTEST_Z0(e1.y, e1.x, fey1, fex1);
; 178  : 			
; 179  : 			const Point e2 = mLeafVerts[0] - mLeafVerts[2];
; 180  : 			const float fey2 = _abs(e2.y);
; 181  : 			const float fez2 = _abs(e2.z);
; 182  : 			AXISTEST_X2(e2.z, e2.y, fez2, fey2);
; 183  : 			const float fex2 = _abs(e2.x);
; 184  : 			AXISTEST_Y1(e2.z, e2.x, fez2, fex2);
; 185  : 			AXISTEST_Z12(e2.y, e2.x, fey2, fex2);
; 186  : 		}
; 187  : 		return true;

	xor	al, al
	jmp	SHORT $LN338@tri
$LN30@tri:
	xor	al, al
	jmp	SHORT $LN62@tri
?_tri@?$box_collider@$0A@$0A@@@QEAA_NXZ ENDP		; box_collider<0,0>::_tri
_TEXT	ENDS
END
